
u-boot:     file format elf32-littlearm


Disassembly of section .text:

00021000 <__image_copy_start>:
   21000:	ea000024 	b	21098 <reset>
   21004:	e59ff014 	ldr	pc, [pc, #20]	; 21020 <_undefined_instruction>
   21008:	e59ff014 	ldr	pc, [pc, #20]	; 21024 <_software_interrupt>
   2100c:	e59ff014 	ldr	pc, [pc, #20]	; 21028 <_prefetch_abort>
   21010:	e59ff014 	ldr	pc, [pc, #20]	; 2102c <_data_abort>
   21014:	e59ff014 	ldr	pc, [pc, #20]	; 21030 <_not_used>
   21018:	e59ff014 	ldr	pc, [pc, #20]	; 21034 <_irq>
   2101c:	e59ff014 	ldr	pc, [pc, #20]	; 21038 <_fiq>

00021020 <_undefined_instruction>:
   21020:	00021240 	.word	0x00021240

00021024 <_software_interrupt>:
   21024:	000212a0 	.word	0x000212a0

00021028 <_prefetch_abort>:
   21028:	00021300 	.word	0x00021300

0002102c <_data_abort>:
   2102c:	00021360 	.word	0x00021360

00021030 <_not_used>:
   21030:	000213c0 	.word	0x000213c0

00021034 <_irq>:
   21034:	00021420 	.word	0x00021420

00021038 <_fiq>:
   21038:	00021480 	.word	0x00021480

0002103c <_pad>:
   2103c:	12345678 	.word	0x12345678

00021040 <_TEXT_BASE>:
   21040:	00021000 	.word	0x00021000

00021044 <_bss_start_ofs>:
   21044:	000525cc 	.word	0x000525cc

00021048 <_image_copy_end_ofs>:
   21048:	000525cc 	.word	0x000525cc

0002104c <_bss_end_ofs>:
   2104c:	0009e7cc 	.word	0x0009e7cc

00021050 <_end_ofs>:
   21050:	0005a244 	.word	0x0005a244

00021054 <_stack_start>:
   21054:	000cf7cc 	.word	0x000cf7cc

00021058 <_irq_stack_start>:
   21058:	000cf7dc 	.word	0x000cf7dc

0002105c <IRQ_STACK_START_IN>:
   2105c:	0badc0de 	.word	0x0badc0de

00021060 <PRINTF_ADDRESS>:
   21060:	0bad0030 	.word	0x0bad0030

00021064 <PRINTF_ADDRESS2>:
   21064:	0bad0004 	.word	0x0bad0004

00021068 <PRINTF_ADDRESS3>:
   21068:	0bad0008 	.word	0x0bad0008

0002106c <PRINTF_ADDRESS4>:
   2106c:	0bad000c 	.word	0x0bad000c

00021070 <PRINTF_ADDRESS5>:
   21070:	0bad0010 	.word	0x0bad0010

00021074 <PRINTF_ADDRESS6>:
   21074:	0bad0014 	.word	0x0bad0014

00021078 <PRINTF_ADDRESS7>:
   21078:	0bad0018 	.word	0x0bad0018

0002107c <PRINTF_ADDRESS8>:
   2107c:	0bad001c 	.word	0x0bad001c

00021080 <UATAG_ADDRESS9>:
   21080:	0bad0020 	.word	0x0bad0020

00021084 <UATAG_ADDRESS10>:
   21084:	0bad0024 	.word	0x0bad0024

00021088 <UATAG_ADDRESS11>:
   21088:	0bad0028 	.word	0x0bad0028

0002108c <UATAG_ADDRESS12>:
   2108c:	0bad002c 	.word	0x0bad002c

00021090 <golden_sec_start>:
   21090:	00000000 	.word	0x00000000

00021094 <golden_sec_end>:
   21094:	00000000 	.word	0x00000000

00021098 <reset>:
   21098:	e10f0000 	mrs	r0, CPSR
   2109c:	e3c0001f 	bic	r0, r0, #31
   210a0:	e38000d3 	orr	r0, r0, #211	; 0xd3
   210a4:	e129f000 	msr	CPSR_fc, r0
   210a8:	ee110f10 	mrc	15, 0, r0, cr1, cr0, {0}
   210ac:	e3c00a02 	bic	r0, r0, #8192	; 0x2000
   210b0:	ee010f10 	mcr	15, 0, r0, cr1, cr0, {0}
   210b4:	e59f040c 	ldr	r0, [pc, #1036]	; 214c8 <fiq+0x48>
   210b8:	ee0c0f10 	mcr	15, 0, r0, cr12, cr0, {0}
   210bc:	eb00004b 	bl	211f0 <cpu_init_cp15>

000210c0 <call_board_init_f>:
   210c0:	e51fd074 	ldr	sp, [pc, #-116]	; 21054 <_stack_start>
   210c4:	e3cdd007 	bic	sp, sp, #7
   210c8:	e3a00000 	mov	r0, #0
   210cc:	eb000e39 	bl	249b8 <board_init_f>

000210d0 <relocate_code>:
   210d0:	e1a04000 	mov	r4, r0
   210d4:	e1a05001 	mov	r5, r1
   210d8:	e1a06002 	mov	r6, r2

000210dc <stack_setup>:
   210dc:	e1a0d004 	mov	sp, r4
   210e0:	e24f00e8 	sub	r0, pc, #232	; 0xe8
   210e4:	e1500006 	cmp	r0, r6
   210e8:	03a09000 	moveq	r9, #0
   210ec:	0a000006 	beq	2110c <fix_rel>
   210f0:	e1a01006 	mov	r1, r6
   210f4:	e51f30b4 	ldr	r3, [pc, #-180]	; 21048 <_image_copy_end_ofs>
   210f8:	e0802003 	add	r2, r0, r3

000210fc <copy_loop>:
   210fc:	e8b00600 	ldm	r0!, {r9, sl}
   21100:	e8a10600 	stmia	r1!, {r9, sl}
   21104:	e1500002 	cmp	r0, r2
   21108:	3afffffb 	bcc	210fc <copy_loop>

0002110c <fix_rel>:
   2110c:	e51f00d4 	ldr	r0, [pc, #-212]	; 21040 <_TEXT_BASE>
   21110:	e0469000 	sub	r9, r6, r0
   21114:	e59fa06c 	ldr	sl, [pc, #108]	; 21188 <_dynsym_start_ofs>
   21118:	e08aa000 	add	sl, sl, r0
   2111c:	e59f205c 	ldr	r2, [pc, #92]	; 21180 <_rel_dyn_start_ofs>
   21120:	e0822000 	add	r2, r2, r0
   21124:	e59f3058 	ldr	r3, [pc, #88]	; 21184 <_rel_dyn_end_ofs>
   21128:	e0833000 	add	r3, r3, r0

0002112c <fixloop>:
   2112c:	e5920000 	ldr	r0, [r2]
   21130:	e0800009 	add	r0, r0, r9
   21134:	e5921004 	ldr	r1, [r2, #4]
   21138:	e20170ff 	and	r7, r1, #255	; 0xff
   2113c:	e3570017 	cmp	r7, #23
   21140:	0a000007 	beq	21164 <fixrel>
   21144:	e3570002 	cmp	r7, #2
   21148:	0a000000 	beq	21150 <fixabs>
   2114c:	ea000006 	b	2116c <fixnext>

00021150 <fixabs>:
   21150:	e1a01221 	lsr	r1, r1, #4
   21154:	e08a1001 	add	r1, sl, r1
   21158:	e5911004 	ldr	r1, [r1, #4]
   2115c:	e0811009 	add	r1, r1, r9
   21160:	ea000001 	b	2116c <fixnext>

00021164 <fixrel>:
   21164:	e5901000 	ldr	r1, [r0]
   21168:	e0811009 	add	r1, r1, r9

0002116c <fixnext>:
   2116c:	e5801000 	str	r1, [r0]
   21170:	e2822008 	add	r2, r2, #8
   21174:	e1520003 	cmp	r2, r3
   21178:	3affffeb 	bcc	2112c <fixloop>
   2117c:	ea000002 	b	2118c <clear_bss>

00021180 <_rel_dyn_start_ofs>:
   21180:	000525cc 	.word	0x000525cc

00021184 <_rel_dyn_end_ofs>:
   21184:	0005a064 	.word	0x0005a064

00021188 <_dynsym_start_ofs>:
   21188:	0005a064 	.word	0x0005a064

0002118c <clear_bss>:
   2118c:	e51f0150 	ldr	r0, [pc, #-336]	; 21044 <_bss_start_ofs>
   21190:	e51f114c 	ldr	r1, [pc, #-332]	; 2104c <_bss_end_ofs>
   21194:	e1a04006 	mov	r4, r6
   21198:	e0800004 	add	r0, r0, r4
   2119c:	e0811004 	add	r1, r1, r4
   211a0:	e3a02000 	mov	r2, #0

000211a4 <clbss_l>:
   211a4:	e1500001 	cmp	r0, r1
   211a8:	2a000002 	bcs	211b8 <clbss_e>
   211ac:	e5802000 	str	r2, [r0]
   211b0:	e2800004 	add	r0, r0, #4
   211b4:	eafffffa 	b	211a4 <clbss_l>

000211b8 <clbss_e>:
   211b8:	ee070f15 	mcr	15, 0, r0, cr7, cr5, {0}
   211bc:	f57ff04f 	dsb	sy
   211c0:	f57ff06f 	isb	sy
   211c4:	e59f02fc 	ldr	r0, [pc, #764]	; 214c8 <fiq+0x48>
   211c8:	e0800009 	add	r0, r0, r9
   211cc:	ee0c0f10 	mcr	15, 0, r0, cr12, cr0, {0}
   211d0:	e59f0014 	ldr	r0, [pc, #20]	; 211ec <_board_init_r_ofs>
   211d4:	e24f1f77 	sub	r1, pc, #476	; 0x1dc
   211d8:	e080e001 	add	lr, r0, r1
   211dc:	e08ee009 	add	lr, lr, r9
   211e0:	e1a00005 	mov	r0, r5
   211e4:	e1a01006 	mov	r1, r6
   211e8:	e1a0f00e 	mov	pc, lr

000211ec <_board_init_r_ofs>:
   211ec:	000037c4 	.word	0x000037c4

000211f0 <cpu_init_cp15>:
   211f0:	e3a00000 	mov	r0, #0
   211f4:	ee080f17 	mcr	15, 0, r0, cr8, cr7, {0}
   211f8:	ee070f15 	mcr	15, 0, r0, cr7, cr5, {0}
   211fc:	ee070fd5 	mcr	15, 0, r0, cr7, cr5, {6}
   21200:	f57ff04f 	dsb	sy
   21204:	f57ff06f 	isb	sy
   21208:	ee110f10 	mrc	15, 0, r0, cr1, cr0, {0}
   2120c:	e3c00a02 	bic	r0, r0, #8192	; 0x2000
   21210:	e3c00007 	bic	r0, r0, #7
   21214:	e3800002 	orr	r0, r0, #2
   21218:	e3800b02 	orr	r0, r0, #2048	; 0x800
   2121c:	e3800a01 	orr	r0, r0, #4096	; 0x1000
   21220:	ee010f10 	mcr	15, 0, r0, cr1, cr0, {0}
   21224:	e1a0f00e 	mov	pc, lr
   21228:	e320f000 	nop	{0}
   2122c:	e320f000 	nop	{0}
   21230:	e320f000 	nop	{0}
   21234:	e320f000 	nop	{0}
   21238:	e320f000 	nop	{0}
   2123c:	e320f000 	nop	{0}

00021240 <undefined_instruction>:
   21240:	e51fd1ec 	ldr	sp, [pc, #-492]	; 2105c <IRQ_STACK_START_IN>
   21244:	e58de000 	str	lr, [sp]
   21248:	e14fe000 	mrs	lr, SPSR
   2124c:	e58de004 	str	lr, [sp, #4]
   21250:	e3a0d013 	mov	sp, #19
   21254:	e169f00d 	msr	SPSR_fc, sp
   21258:	e1a0e00f 	mov	lr, pc
   2125c:	e1b0f00e 	movs	pc, lr
   21260:	e24dd048 	sub	sp, sp, #72	; 0x48
   21264:	e88d1fff 	stm	sp, {r0, r1, r2, r3, r4, r5, r6, r7, r8, r9, sl, fp, ip}
   21268:	e51f2214 	ldr	r2, [pc, #-532]	; 2105c <IRQ_STACK_START_IN>
   2126c:	e892000c 	ldm	r2, {r2, r3}
   21270:	e28d0048 	add	r0, sp, #72	; 0x48
   21274:	e28d5034 	add	r5, sp, #52	; 0x34
   21278:	e1a0100e 	mov	r1, lr
   2127c:	e885000f 	stm	r5, {r0, r1, r2, r3}
   21280:	e1a0000d 	mov	r0, sp
   21284:	eb000f29 	bl	24f30 <do_undefined_instruction>
   21288:	e320f000 	nop	{0}
   2128c:	e320f000 	nop	{0}
   21290:	e320f000 	nop	{0}
   21294:	e320f000 	nop	{0}
   21298:	e320f000 	nop	{0}
   2129c:	e320f000 	nop	{0}

000212a0 <software_interrupt>:
   212a0:	e24dd004 	sub	sp, sp, #4
   212a4:	e58d0000 	str	r0, [sp]
   212a8:	e51f0254 	ldr	r0, [pc, #-596]	; 2105c <IRQ_STACK_START_IN>
   212ac:	e580e000 	str	lr, [r0]
   212b0:	e14f0000 	mrs	r0, SPSR
   212b4:	e580e004 	str	lr, [r0, #4]
   212b8:	e59d0000 	ldr	r0, [sp]
   212bc:	e28dd004 	add	sp, sp, #4
   212c0:	e24dd048 	sub	sp, sp, #72	; 0x48
   212c4:	e88d1fff 	stm	sp, {r0, r1, r2, r3, r4, r5, r6, r7, r8, r9, sl, fp, ip}
   212c8:	e51f2274 	ldr	r2, [pc, #-628]	; 2105c <IRQ_STACK_START_IN>
   212cc:	e892000c 	ldm	r2, {r2, r3}
   212d0:	e28d0048 	add	r0, sp, #72	; 0x48
   212d4:	e28d5034 	add	r5, sp, #52	; 0x34
   212d8:	e1a0100e 	mov	r1, lr
   212dc:	e885000f 	stm	r5, {r0, r1, r2, r3}
   212e0:	e1a0000d 	mov	r0, sp
   212e4:	eb000f19 	bl	24f50 <do_software_interrupt>
   212e8:	e320f000 	nop	{0}
   212ec:	e320f000 	nop	{0}
   212f0:	e320f000 	nop	{0}
   212f4:	e320f000 	nop	{0}
   212f8:	e320f000 	nop	{0}
   212fc:	e320f000 	nop	{0}

00021300 <prefetch_abort>:
   21300:	e51fd2ac 	ldr	sp, [pc, #-684]	; 2105c <IRQ_STACK_START_IN>
   21304:	e58de000 	str	lr, [sp]
   21308:	e14fe000 	mrs	lr, SPSR
   2130c:	e58de004 	str	lr, [sp, #4]
   21310:	e3a0d013 	mov	sp, #19
   21314:	e169f00d 	msr	SPSR_fc, sp
   21318:	e1a0e00f 	mov	lr, pc
   2131c:	e1b0f00e 	movs	pc, lr
   21320:	e24dd048 	sub	sp, sp, #72	; 0x48
   21324:	e88d1fff 	stm	sp, {r0, r1, r2, r3, r4, r5, r6, r7, r8, r9, sl, fp, ip}
   21328:	e51f22d4 	ldr	r2, [pc, #-724]	; 2105c <IRQ_STACK_START_IN>
   2132c:	e892000c 	ldm	r2, {r2, r3}
   21330:	e28d0048 	add	r0, sp, #72	; 0x48
   21334:	e28d5034 	add	r5, sp, #52	; 0x34
   21338:	e1a0100e 	mov	r1, lr
   2133c:	e885000f 	stm	r5, {r0, r1, r2, r3}
   21340:	e1a0000d 	mov	r0, sp
   21344:	eb000f09 	bl	24f70 <do_prefetch_abort>
   21348:	e320f000 	nop	{0}
   2134c:	e320f000 	nop	{0}
   21350:	e320f000 	nop	{0}
   21354:	e320f000 	nop	{0}
   21358:	e320f000 	nop	{0}
   2135c:	e320f000 	nop	{0}

00021360 <data_abort>:
   21360:	e51fd30c 	ldr	sp, [pc, #-780]	; 2105c <IRQ_STACK_START_IN>
   21364:	e58de000 	str	lr, [sp]
   21368:	e14fe000 	mrs	lr, SPSR
   2136c:	e58de004 	str	lr, [sp, #4]
   21370:	e3a0d013 	mov	sp, #19
   21374:	e169f00d 	msr	SPSR_fc, sp
   21378:	e1a0e00f 	mov	lr, pc
   2137c:	e1b0f00e 	movs	pc, lr
   21380:	e24dd048 	sub	sp, sp, #72	; 0x48
   21384:	e88d1fff 	stm	sp, {r0, r1, r2, r3, r4, r5, r6, r7, r8, r9, sl, fp, ip}
   21388:	e51f2334 	ldr	r2, [pc, #-820]	; 2105c <IRQ_STACK_START_IN>
   2138c:	e892000c 	ldm	r2, {r2, r3}
   21390:	e28d0048 	add	r0, sp, #72	; 0x48
   21394:	e28d5034 	add	r5, sp, #52	; 0x34
   21398:	e1a0100e 	mov	r1, lr
   2139c:	e885000f 	stm	r5, {r0, r1, r2, r3}
   213a0:	e1a0000d 	mov	r0, sp
   213a4:	eb000ef9 	bl	24f90 <do_data_abort>
   213a8:	e320f000 	nop	{0}
   213ac:	e320f000 	nop	{0}
   213b0:	e320f000 	nop	{0}
   213b4:	e320f000 	nop	{0}
   213b8:	e320f000 	nop	{0}
   213bc:	e320f000 	nop	{0}

000213c0 <not_used>:
   213c0:	e51fd36c 	ldr	sp, [pc, #-876]	; 2105c <IRQ_STACK_START_IN>
   213c4:	e58de000 	str	lr, [sp]
   213c8:	e14fe000 	mrs	lr, SPSR
   213cc:	e58de004 	str	lr, [sp, #4]
   213d0:	e3a0d013 	mov	sp, #19
   213d4:	e169f00d 	msr	SPSR_fc, sp
   213d8:	e1a0e00f 	mov	lr, pc
   213dc:	e1b0f00e 	movs	pc, lr
   213e0:	e24dd048 	sub	sp, sp, #72	; 0x48
   213e4:	e88d1fff 	stm	sp, {r0, r1, r2, r3, r4, r5, r6, r7, r8, r9, sl, fp, ip}
   213e8:	e51f2394 	ldr	r2, [pc, #-916]	; 2105c <IRQ_STACK_START_IN>
   213ec:	e892000c 	ldm	r2, {r2, r3}
   213f0:	e28d0048 	add	r0, sp, #72	; 0x48
   213f4:	e28d5034 	add	r5, sp, #52	; 0x34
   213f8:	e1a0100e 	mov	r1, lr
   213fc:	e885000f 	stm	r5, {r0, r1, r2, r3}
   21400:	e1a0000d 	mov	r0, sp
   21404:	eb000ee9 	bl	24fb0 <do_not_used>
   21408:	e320f000 	nop	{0}
   2140c:	e320f000 	nop	{0}
   21410:	e320f000 	nop	{0}
   21414:	e320f000 	nop	{0}
   21418:	e320f000 	nop	{0}
   2141c:	e320f000 	nop	{0}

00021420 <irq>:
   21420:	e51fd3cc 	ldr	sp, [pc, #-972]	; 2105c <IRQ_STACK_START_IN>
   21424:	e58de000 	str	lr, [sp]
   21428:	e14fe000 	mrs	lr, SPSR
   2142c:	e58de004 	str	lr, [sp, #4]
   21430:	e3a0d013 	mov	sp, #19
   21434:	e169f00d 	msr	SPSR_fc, sp
   21438:	e1a0e00f 	mov	lr, pc
   2143c:	e1b0f00e 	movs	pc, lr
   21440:	e24dd048 	sub	sp, sp, #72	; 0x48
   21444:	e88d1fff 	stm	sp, {r0, r1, r2, r3, r4, r5, r6, r7, r8, r9, sl, fp, ip}
   21448:	e51f23f4 	ldr	r2, [pc, #-1012]	; 2105c <IRQ_STACK_START_IN>
   2144c:	e892000c 	ldm	r2, {r2, r3}
   21450:	e28d0048 	add	r0, sp, #72	; 0x48
   21454:	e28d5034 	add	r5, sp, #52	; 0x34
   21458:	e1a0100e 	mov	r1, lr
   2145c:	e885000f 	stm	r5, {r0, r1, r2, r3}
   21460:	e1a0000d 	mov	r0, sp
   21464:	eb000ee1 	bl	24ff0 <do_irq>
   21468:	e320f000 	nop	{0}
   2146c:	e320f000 	nop	{0}
   21470:	e320f000 	nop	{0}
   21474:	e320f000 	nop	{0}
   21478:	e320f000 	nop	{0}
   2147c:	e320f000 	nop	{0}

00021480 <fiq>:
   21480:	e51fd42c 	ldr	sp, [pc, #-1068]	; 2105c <IRQ_STACK_START_IN>
   21484:	e58de000 	str	lr, [sp]
   21488:	e14fe000 	mrs	lr, SPSR
   2148c:	e58de004 	str	lr, [sp, #4]
   21490:	e3a0d013 	mov	sp, #19
   21494:	e169f00d 	msr	SPSR_fc, sp
   21498:	e1a0e00f 	mov	lr, pc
   2149c:	e1b0f00e 	movs	pc, lr
   214a0:	e24dd048 	sub	sp, sp, #72	; 0x48
   214a4:	e88d1fff 	stm	sp, {r0, r1, r2, r3, r4, r5, r6, r7, r8, r9, sl, fp, ip}
   214a8:	e51f2454 	ldr	r2, [pc, #-1108]	; 2105c <IRQ_STACK_START_IN>
   214ac:	e892000c 	ldm	r2, {r2, r3}
   214b0:	e28d0048 	add	r0, sp, #72	; 0x48
   214b4:	e28d5034 	add	r5, sp, #52	; 0x34
   214b8:	e1a0100e 	mov	r1, lr
   214bc:	e885000f 	stm	r5, {r0, r1, r2, r3}
   214c0:	e1a0000d 	mov	r0, sp
   214c4:	eb000ec1 	bl	24fd0 <do_fiq>
   214c8:	00021000 	.word	0x00021000
   214cc:	e320f000 	nop	{0}
   214d0:	e320f000 	nop	{0}
   214d4:	e320f000 	nop	{0}
   214d8:	e320f000 	nop	{0}
   214dc:	e320f000 	nop	{0}

000214e0 <nl_entry>:
   214e0:	e12fff1e 	bx	lr

000214e4 <v7_maint_dcache_all>:
   214e4:	e92d42f0 	push	{r4, r5, r6, r7, r9, lr}
   214e8:	ee30ef30 	mrc	15, 1, lr, cr0, cr0, {1}
   214ec:	e3a01000 	mov	r1, #0
   214f0:	e1a0c081 	lsl	ip, r1, #1
   214f4:	e08c3001 	add	r3, ip, r1
   214f8:	e1a0333e 	lsr	r3, lr, r3
   214fc:	e2033007 	and	r3, r3, #7
   21500:	e2433002 	sub	r3, r3, #2
   21504:	e3530002 	cmp	r3, #2
   21508:	8a000024 	bhi	215a0 <v7_maint_dcache_all+0xbc>
   2150c:	ee40cf10 	mcr	15, 2, ip, cr0, cr0, {0}
   21510:	ee304f10 	mrc	15, 1, r4, cr0, cr0, {0}
   21514:	e7e931d4 	ubfx	r3, r4, #3, #10
   21518:	e2045007 	and	r5, r4, #7
   2151c:	e2837001 	add	r7, r3, #1
   21520:	e2855004 	add	r5, r5, #4
   21524:	e7ee46d4 	ubfx	r4, r4, #13, #15
   21528:	e1a06007 	mov	r6, r7
   2152c:	e3e02000 	mvn	r2, #0
   21530:	e1b060a6 	lsrs	r6, r6, #1
   21534:	e2822001 	add	r2, r2, #1
   21538:	1afffffc 	bne	21530 <v7_maint_dcache_all+0x4c>
   2153c:	e1170003 	tst	r7, r3
   21540:	12822001 	addne	r2, r2, #1
   21544:	e3500001 	cmp	r0, #1
   21548:	e2622020 	rsb	r2, r2, #32
   2154c:	1a000008 	bne	21574 <v7_maint_dcache_all+0x90>
   21550:	e1a06004 	mov	r6, r4
   21554:	e18c9213 	orr	r9, ip, r3, lsl r2
   21558:	e1897516 	orr	r7, r9, r6, lsl r5
   2155c:	ee077f56 	mcr	15, 0, r7, cr7, cr6, {2}
   21560:	e2566001 	subs	r6, r6, #1
   21564:	2afffffb 	bcs	21558 <v7_maint_dcache_all+0x74>
   21568:	e2533001 	subs	r3, r3, #1
   2156c:	2afffff7 	bcs	21550 <v7_maint_dcache_all+0x6c>
   21570:	ea000009 	b	2159c <v7_maint_dcache_all+0xb8>
   21574:	e3500002 	cmp	r0, #2
   21578:	1a000008 	bne	215a0 <v7_maint_dcache_all+0xbc>
   2157c:	e1a06004 	mov	r6, r4
   21580:	e18c9213 	orr	r9, ip, r3, lsl r2
   21584:	e1897516 	orr	r7, r9, r6, lsl r5
   21588:	ee077f5e 	mcr	15, 0, r7, cr7, cr14, {2}
   2158c:	e2566001 	subs	r6, r6, #1
   21590:	2afffffb 	bcs	21584 <v7_maint_dcache_all+0xa0>
   21594:	e2533001 	subs	r3, r3, #1
   21598:	2afffff7 	bcs	2157c <v7_maint_dcache_all+0x98>
   2159c:	f57ff04f 	dsb	sy
   215a0:	e2811001 	add	r1, r1, #1
   215a4:	e3510007 	cmp	r1, #7
   215a8:	1affffd0 	bne	214f0 <v7_maint_dcache_all+0xc>
   215ac:	e8bd82f0 	pop	{r4, r5, r6, r7, r9, pc}

000215b0 <invalidate_icache_all>:
   215b0:	e3a03000 	mov	r3, #0
   215b4:	ee073f15 	mcr	15, 0, r3, cr7, cr5, {0}
   215b8:	ee073fd5 	mcr	15, 0, r3, cr7, cr5, {6}
   215bc:	f57ff04f 	dsb	sy
   215c0:	f57ff06f 	isb	sy
   215c4:	e12fff1e 	bx	lr

000215c8 <__v7_outer_cache_enable>:
   215c8:	e12fff1e 	bx	lr

000215cc <__v7_outer_cache_disable>:
   215cc:	e12fff1e 	bx	lr

000215d0 <__v7_outer_cache_flush_all>:
   215d0:	e12fff1e 	bx	lr

000215d4 <flush_dcache_all>:
   215d4:	e92d4010 	push	{r4, lr}
   215d8:	e3a00002 	mov	r0, #2
   215dc:	ebffffc0 	bl	214e4 <v7_maint_dcache_all>
   215e0:	e8bd4010 	pop	{r4, lr}
   215e4:	eafffff9 	b	215d0 <__v7_outer_cache_flush_all>

000215e8 <__v7_outer_cache_inval_all>:
   215e8:	e12fff1e 	bx	lr

000215ec <invalidate_dcache_all>:
   215ec:	e92d4010 	push	{r4, lr}
   215f0:	e3a00001 	mov	r0, #1
   215f4:	ebffffba 	bl	214e4 <v7_maint_dcache_all>
   215f8:	e8bd4010 	pop	{r4, lr}
   215fc:	eafffff9 	b	215e8 <__v7_outer_cache_inval_all>

00021600 <arm_init_before_mmu>:
   21600:	e92d4010 	push	{r4, lr}
   21604:	eb000066 	bl	217a4 <v7_outer_cache_enable>
   21608:	ebfffff7 	bl	215ec <invalidate_dcache_all>
   2160c:	e3a03000 	mov	r3, #0
   21610:	ee083f17 	mcr	15, 0, r3, cr8, cr7, {0}
   21614:	ee083f16 	mcr	15, 0, r3, cr8, cr6, {0}
   21618:	ee083f15 	mcr	15, 0, r3, cr8, cr5, {0}
   2161c:	f57ff04f 	dsb	sy
   21620:	f57ff06f 	isb	sy
   21624:	e8bd8010 	pop	{r4, pc}

00021628 <__v7_outer_cache_flush_range>:
   21628:	e12fff1e 	bx	lr

0002162c <flush_dcache_range>:
   2162c:	ee303f10 	mrc	15, 1, r3, cr0, cr0, {0}
   21630:	e2033007 	and	r3, r3, #7
   21634:	e3a02001 	mov	r2, #1
   21638:	e2833004 	add	r3, r3, #4
   2163c:	e1a02312 	lsl	r2, r2, r3
   21640:	e2623000 	rsb	r3, r2, #0
   21644:	e0033000 	and	r3, r3, r0
   21648:	e1530001 	cmp	r3, r1
   2164c:	8a000002 	bhi	2165c <flush_dcache_range+0x30>
   21650:	ee073f3e 	mcr	15, 0, r3, cr7, cr14, {1}
   21654:	e0833002 	add	r3, r3, r2
   21658:	eafffffa 	b	21648 <flush_dcache_range+0x1c>
   2165c:	f57ff04f 	dsb	sy
   21660:	eafffff0 	b	21628 <__v7_outer_cache_flush_range>

00021664 <flush_cache>:
   21664:	e0801001 	add	r1, r0, r1
   21668:	eaffffef 	b	2162c <flush_dcache_range>

0002166c <__v7_outer_cache_inval_range>:
   2166c:	e12fff1e 	bx	lr

00021670 <invalidate_dcache_range>:
   21670:	e52de004 	push	{lr}		; (str lr, [sp, #-4]!)
   21674:	ee302f10 	mrc	15, 1, r2, cr0, cr0, {0}
   21678:	e2022007 	and	r2, r2, #7
   2167c:	e3a03001 	mov	r3, #1
   21680:	e2822004 	add	r2, r2, #4
   21684:	e1a02213 	lsl	r2, r3, r2
   21688:	e242c001 	sub	ip, r2, #1
   2168c:	e11c0000 	tst	ip, r0
   21690:	12403001 	subne	r3, r0, #1
   21694:	1262e000 	rsbne	lr, r2, #0
   21698:	10833002 	addne	r3, r3, r2
   2169c:	01a03000 	moveq	r3, r0
   216a0:	1003300e 	andne	r3, r3, lr
   216a4:	e11c0001 	tst	ip, r1
   216a8:	1262c000 	rsbne	ip, r2, #0
   216ac:	01a0c001 	moveq	ip, r1
   216b0:	100cc001 	andne	ip, ip, r1
   216b4:	e153000c 	cmp	r3, ip
   216b8:	8a000002 	bhi	216c8 <invalidate_dcache_range+0x58>
   216bc:	ee073f36 	mcr	15, 0, r3, cr7, cr6, {1}
   216c0:	e0833002 	add	r3, r3, r2
   216c4:	eafffffa 	b	216b4 <invalidate_dcache_range+0x44>
   216c8:	f57ff04f 	dsb	sy
   216cc:	e49de004 	pop	{lr}		; (ldr lr, [sp], #4)
   216d0:	eaffffe5 	b	2166c <__v7_outer_cache_inval_range>

000216d4 <save_boot_params_default>:
   216d4:	e12fff1e 	bx	lr

000216d8 <cleanup_before_linux>:
   216d8:	e59f3028 	ldr	r3, [pc, #40]	; 21708 <cleanup_before_linux+0x30>
   216dc:	e92d4010 	push	{r4, lr}
   216e0:	e3a04000 	mov	r4, #0
   216e4:	e5834204 	str	r4, [r3, #516]	; 0x204
   216e8:	eb000dbb 	bl	24ddc <disable_interrupts>
   216ec:	eb000eae 	bl	251ac <icache_disable>
   216f0:	ebffffae 	bl	215b0 <invalidate_icache_all>
   216f4:	eb000ec1 	bl	25200 <dcache_disable>
   216f8:	eb00002a 	bl	217a8 <v7_outer_cache_disable>
   216fc:	ebffffba 	bl	215ec <invalidate_dcache_all>
   21700:	e1a00004 	mov	r0, r4
   21704:	e8bd8010 	pop	{r4, pc}
   21708:	1801b000 	.word	0x1801b000

0002170c <cleanup_before_bootcode>:
   2170c:	eafffff1 	b	216d8 <cleanup_before_linux>

00021710 <cleanup_before_dvrbootexe>:
   21710:	eafffff0 	b	216d8 <cleanup_before_linux>

00021714 <sdelay>:
   21714:	e2500001 	subs	r0, r0, #1
   21718:	1afffffd 	bne	21714 <sdelay>
   2171c:	e12fff1e 	bx	lr

00021720 <sr32>:
   21720:	e3a0c001 	mov	ip, #1
   21724:	e1a0221c 	lsl	r2, ip, r2
   21728:	e590c000 	ldr	ip, [r0]
   2172c:	f57ff05f 	dmb	sy
   21730:	e2422001 	sub	r2, r2, #1
   21734:	e1cc2112 	bic	r2, ip, r2, lsl r1
   21738:	e1823113 	orr	r3, r2, r3, lsl r1
   2173c:	f57ff05f 	dmb	sy
   21740:	e5803000 	str	r3, [r0]
   21744:	e12fff1e 	bx	lr

00021748 <wait_on_value>:
   21748:	e52de004 	push	{lr}		; (str lr, [sp, #-4]!)
   2174c:	e3a0c000 	mov	ip, #0
   21750:	e28cc001 	add	ip, ip, #1
   21754:	e592e000 	ldr	lr, [r2]
   21758:	f57ff05f 	dmb	sy
   2175c:	e00ee000 	and	lr, lr, r0
   21760:	e15e0001 	cmp	lr, r1
   21764:	0a000003 	beq	21778 <wait_on_value+0x30>
   21768:	e15c0003 	cmp	ip, r3
   2176c:	1afffff7 	bne	21750 <wait_on_value+0x8>
   21770:	e3a00000 	mov	r0, #0
   21774:	e49df004 	pop	{pc}		; (ldr pc, [sp], #4)
   21778:	e3a00001 	mov	r0, #1
   2177c:	e49df004 	pop	{pc}		; (ldr pc, [sp], #4)

00021780 <cortex_rev>:
   21780:	ee100f10 	mrc	15, 0, r0, cr0, cr0, {0}
   21784:	e12fff1e 	bx	lr

00021788 <print_cpuinfo>:
   21788:	e92d4010 	push	{r4, lr}
   2178c:	e59f0008 	ldr	r0, [pc, #8]	; 2179c <print_cpuinfo+0x14>
   21790:	eb00314a 	bl	2dcc0 <printf>
   21794:	e3a00000 	mov	r0, #0
   21798:	e8bd8010 	pop	{r4, pc}
   2179c:	00066243 	.word	0x00066243

000217a0 <enable_caches>:
   217a0:	ea000e8a 	b	251d0 <dcache_enable>

000217a4 <v7_outer_cache_enable>:
   217a4:	e12fff1e 	bx	lr

000217a8 <v7_outer_cache_disable>:
   217a8:	e12fff1e 	bx	lr

000217ac <rtd_outl>:
   217ac:	e280333a 	add	r3, r0, #-402653184	; 0xe8000000
   217b0:	e3530701 	cmp	r3, #262144	; 0x40000
   217b4:	3a000003 	bcc	217c8 <rtd_outl+0x1c>
   217b8:	e28034e7 	add	r3, r0, #-419430400	; 0xe7000000
   217bc:	e283360f 	add	r3, r3, #15728640	; 0xf00000
   217c0:	e3530401 	cmp	r3, #16777216	; 0x1000000
   217c4:	2a000000 	bcs	217cc <rtd_outl+0x20>
   217c8:	e2800102 	add	r0, r0, #-2147483648	; 0x80000000
   217cc:	e5801000 	str	r1, [r0]
   217d0:	e12fff1e 	bx	lr

000217d4 <timer_init>:
   217d4:	e92d4010 	push	{r4, lr}
   217d8:	e59f4034 	ldr	r4, [pc, #52]	; 21814 <timer_init+0x40>
   217dc:	e3a01000 	mov	r1, #0
   217e0:	e594000c 	ldr	r0, [r4, #12]
   217e4:	ebfffff0 	bl	217ac <rtd_outl>
   217e8:	e5940008 	ldr	r0, [r4, #8]
   217ec:	e3a01000 	mov	r1, #0
   217f0:	ebffffed 	bl	217ac <rtd_outl>
   217f4:	e5940000 	ldr	r0, [r4]
   217f8:	e3e01000 	mvn	r1, #0
   217fc:	ebffffea 	bl	217ac <rtd_outl>
   21800:	e5940008 	ldr	r0, [r4, #8]
   21804:	e3a01103 	mov	r1, #-1073741824	; 0xc0000000
   21808:	ebffffe7 	bl	217ac <rtd_outl>
   2180c:	e3a00000 	mov	r0, #0
   21810:	e8bd8010 	pop	{r4, pc}
   21814:	00071c28 	.word	0x00071c28

00021818 <__udelay>:
   21818:	e3063978 	movw	r3, #27000	; 0x6978
   2181c:	e92d4030 	push	{r4, r5, lr}
   21820:	e0000093 	mul	r0, r3, r0
   21824:	e3a03ffa 	mov	r3, #1000	; 0x3e8
   21828:	e730f310 	udiv	r0, r0, r3
   2182c:	e59f3054 	ldr	r3, [pc, #84]	; 21888 <__udelay+0x70>
   21830:	e5932004 	ldr	r2, [r3, #4]
   21834:	e592c000 	ldr	ip, [r2]
   21838:	f57ff05f 	dmb	sy
   2183c:	e5933004 	ldr	r3, [r3, #4]
   21840:	e59f5044 	ldr	r5, [pc, #68]	; 2188c <__udelay+0x74>
   21844:	e28314e7 	add	r1, r3, #-419430400	; 0xe7000000
   21848:	e283433a 	add	r4, r3, #-402653184	; 0xe8000000
   2184c:	e283e102 	add	lr, r3, #-2147483648	; 0x80000000
   21850:	e281160f 	add	r1, r1, #15728640	; 0xf00000
   21854:	e3500000 	cmp	r0, #0
   21858:	da000009 	ble	21884 <__udelay+0x6c>
   2185c:	e1540005 	cmp	r4, r5
   21860:	9a000002 	bls	21870 <__udelay+0x58>
   21864:	e3510401 	cmp	r1, #16777216	; 0x1000000
   21868:	25932000 	ldrcs	r2, [r3]
   2186c:	2a000000 	bcs	21874 <__udelay+0x5c>
   21870:	e59e2000 	ldr	r2, [lr]
   21874:	e0620000 	rsb	r0, r2, r0
   21878:	e080000c 	add	r0, r0, ip
   2187c:	e1a0c002 	mov	ip, r2
   21880:	eafffff3 	b	21854 <__udelay+0x3c>
   21884:	e8bd8030 	pop	{r4, r5, pc}
   21888:	00071c28 	.word	0x00071c28
   2188c:	0003ffff 	.word	0x0003ffff

00021890 <get_timer_masked>:
   21890:	e59f3068 	ldr	r3, [pc, #104]	; 21900 <get_timer_masked+0x70>
   21894:	e5933004 	ldr	r3, [r3, #4]
   21898:	e283233a 	add	r2, r3, #-402653184	; 0xe8000000
   2189c:	e3520701 	cmp	r2, #262144	; 0x40000
   218a0:	3a000003 	bcc	218b4 <get_timer_masked+0x24>
   218a4:	e28324e7 	add	r2, r3, #-419430400	; 0xe7000000
   218a8:	e282260f 	add	r2, r2, #15728640	; 0xf00000
   218ac:	e3520401 	cmp	r2, #16777216	; 0x1000000
   218b0:	2a000000 	bcs	218b8 <get_timer_masked+0x28>
   218b4:	e2833102 	add	r3, r3, #-2147483648	; 0x80000000
   218b8:	e5933000 	ldr	r3, [r3]
   218bc:	e3061978 	movw	r1, #27000	; 0x6978
   218c0:	e731f113 	udiv	r1, r3, r1
   218c4:	e5983030 	ldr	r3, [r8, #48]	; 0x30
   218c8:	e1510003 	cmp	r1, r3
   218cc:	3598c030 	ldrcc	ip, [r8, #48]	; 0x30
   218d0:	35982020 	ldrcc	r2, [r8, #32]
   218d4:	25982030 	ldrcs	r2, [r8, #48]	; 0x30
   218d8:	32823b9b 	addcc	r3, r2, #158720	; 0x26c00
   218dc:	25983020 	ldrcs	r3, [r8, #32]
   218e0:	32833e16 	addcc	r3, r3, #352	; 0x160
   218e4:	20623003 	rsbcs	r3, r2, r3
   218e8:	306c3003 	rsbcc	r3, ip, r3
   218ec:	e0833001 	add	r3, r3, r1
   218f0:	e5883020 	str	r3, [r8, #32]
   218f4:	e5881030 	str	r1, [r8, #48]	; 0x30
   218f8:	e5980020 	ldr	r0, [r8, #32]
   218fc:	e12fff1e 	bx	lr
   21900:	00071c28 	.word	0x00071c28

00021904 <get_timer>:
   21904:	e92d4010 	push	{r4, lr}
   21908:	e1a04000 	mov	r4, r0
   2190c:	ebffffdf 	bl	21890 <get_timer_masked>
   21910:	e0640000 	rsb	r0, r4, r0
   21914:	e8bd8010 	pop	{r4, pc}

00021918 <get_ticks>:
   21918:	e92d4010 	push	{r4, lr}
   2191c:	ebffffdb 	bl	21890 <get_timer_masked>
   21920:	e3a01000 	mov	r1, #0
   21924:	e8bd8010 	pop	{r4, pc}

00021928 <get_tbclk>:
   21928:	e3a00ffa 	mov	r0, #1000	; 0x3e8
   2192c:	e12fff1e 	bx	lr

00021930 <rtd_inl>:
   21930:	e280333a 	add	r3, r0, #-402653184	; 0xe8000000
   21934:	e3530701 	cmp	r3, #262144	; 0x40000
   21938:	3a000003 	bcc	2194c <rtd_inl+0x1c>
   2193c:	e28034e7 	add	r3, r0, #-419430400	; 0xe7000000
   21940:	e283360f 	add	r3, r3, #15728640	; 0xf00000
   21944:	e3530401 	cmp	r3, #16777216	; 0x1000000
   21948:	2a000000 	bcs	21950 <rtd_inl+0x20>
   2194c:	e2800102 	add	r0, r0, #-2147483648	; 0x80000000
   21950:	e5900000 	ldr	r0, [r0]
   21954:	e12fff1e 	bx	lr

00021958 <rtd_outl>:
   21958:	e280333a 	add	r3, r0, #-402653184	; 0xe8000000
   2195c:	e3530701 	cmp	r3, #262144	; 0x40000
   21960:	3a000003 	bcc	21974 <rtd_outl+0x1c>
   21964:	e28034e7 	add	r3, r0, #-419430400	; 0xe7000000
   21968:	e283360f 	add	r3, r3, #15728640	; 0xf00000
   2196c:	e3530401 	cmp	r3, #16777216	; 0x1000000
   21970:	2a000000 	bcs	21978 <rtd_outl+0x20>
   21974:	e2800102 	add	r0, r0, #-2147483648	; 0x80000000
   21978:	e5801000 	str	r1, [r0]
   2197c:	e12fff1e 	bx	lr

00021980 <enable_clock>:
   21980:	e92d42f0 	push	{r4, r5, r6, r7, r9, lr}
   21984:	e1a04002 	mov	r4, r2
   21988:	e1a06003 	mov	r6, r3
   2198c:	e1a05000 	mov	r5, r0
   21990:	e1a00002 	mov	r0, r2
   21994:	e1a07001 	mov	r7, r1
   21998:	ebffffe4 	bl	21930 <rtd_inl>
   2199c:	e1c01006 	bic	r1, r0, r6
   219a0:	e1a00004 	mov	r0, r4
   219a4:	ebffffeb 	bl	21958 <rtd_outl>
   219a8:	e1a00005 	mov	r0, r5
   219ac:	ebffffdf 	bl	21930 <rtd_inl>
   219b0:	e1c01007 	bic	r1, r0, r7
   219b4:	e1a00005 	mov	r0, r5
   219b8:	ebffffe6 	bl	21958 <rtd_outl>
   219bc:	e3a0000a 	mov	r0, #10
   219c0:	eb00e13e 	bl	59ec0 <udelay>
   219c4:	e1a00005 	mov	r0, r5
   219c8:	ebffffd8 	bl	21930 <rtd_inl>
   219cc:	e1801007 	orr	r1, r0, r7
   219d0:	e1a00005 	mov	r0, r5
   219d4:	ebffffdf 	bl	21958 <rtd_outl>
   219d8:	e3a0000a 	mov	r0, #10
   219dc:	eb00e137 	bl	59ec0 <udelay>
   219e0:	e1a00004 	mov	r0, r4
   219e4:	ebffffd1 	bl	21930 <rtd_inl>
   219e8:	e1801006 	orr	r1, r0, r6
   219ec:	e1a00004 	mov	r0, r4
   219f0:	e8bd42f0 	pop	{r4, r5, r6, r7, r9, lr}
   219f4:	eaffffd7 	b	21958 <rtd_outl>

000219f8 <GPU_speed_ID_supported>:
   219f8:	e59f3008 	ldr	r3, [pc, #8]	; 21a08 <GPU_speed_ID_supported+0x10>
   219fc:	e59301cc 	ldr	r0, [r3, #460]	; 0x1cc
   21a00:	e7e000d0 	ubfx	r0, r0, #1, #1
   21a04:	e12fff1e 	bx	lr
   21a08:	98017000 	.word	0x98017000

00021a0c <clock_init>:
   21a0c:	e92d4010 	push	{r4, lr}
   21a10:	ebfffff8 	bl	219f8 <GPU_speed_ID_supported>
   21a14:	e3500000 	cmp	r0, #0
   21a18:	13a03326 	movne	r3, #-1744830464	; 0x98000000
   21a1c:	e3a00000 	mov	r0, #0
   21a20:	159f2004 	ldrne	r2, [pc, #4]	; 21a2c <clock_init+0x20>
   21a24:	158321c0 	strne	r2, [r3, #448]	; 0x1c0
   21a28:	e8bd8010 	pop	{r4, pc}
   21a2c:	08607300 	.word	0x08607300

00021a30 <factory_dump_info>:
   21a30:	e92d4010 	push	{r4, lr}
   21a34:	e59f007c 	ldr	r0, [pc, #124]	; 21ab8 <factory_dump_info+0x88>
   21a38:	eb0030a0 	bl	2dcc0 <printf>
   21a3c:	e59f0078 	ldr	r0, [pc, #120]	; 21abc <factory_dump_info+0x8c>
   21a40:	eb00309e 	bl	2dcc0 <printf>
   21a44:	e59f3074 	ldr	r3, [pc, #116]	; 21ac0 <factory_dump_info+0x90>
   21a48:	e5933000 	ldr	r3, [r3]
   21a4c:	e3530001 	cmp	r3, #1
   21a50:	059f006c 	ldreq	r0, [pc, #108]	; 21ac4 <factory_dump_info+0x94>
   21a54:	0a000004 	beq	21a6c <factory_dump_info+0x3c>
   21a58:	359f0068 	ldrcc	r0, [pc, #104]	; 21ac8 <factory_dump_info+0x98>
   21a5c:	3a000002 	bcc	21a6c <factory_dump_info+0x3c>
   21a60:	e3530002 	cmp	r3, #2
   21a64:	059f0060 	ldreq	r0, [pc, #96]	; 21acc <factory_dump_info+0x9c>
   21a68:	159f0060 	ldrne	r0, [pc, #96]	; 21ad0 <factory_dump_info+0xa0>
   21a6c:	e59f4060 	ldr	r4, [pc, #96]	; 21ad4 <factory_dump_info+0xa4>
   21a70:	eb003092 	bl	2dcc0 <printf>
   21a74:	e59f005c 	ldr	r0, [pc, #92]	; 21ad8 <factory_dump_info+0xa8>
   21a78:	e5941000 	ldr	r1, [r4]
   21a7c:	eb00308f 	bl	2dcc0 <printf>
   21a80:	e5941004 	ldr	r1, [r4, #4]
   21a84:	e59f0050 	ldr	r0, [pc, #80]	; 21adc <factory_dump_info+0xac>
   21a88:	eb00308c 	bl	2dcc0 <printf>
   21a8c:	e5941008 	ldr	r1, [r4, #8]
   21a90:	e59f0048 	ldr	r0, [pc, #72]	; 21ae0 <factory_dump_info+0xb0>
   21a94:	eb003089 	bl	2dcc0 <printf>
   21a98:	e594100c 	ldr	r1, [r4, #12]
   21a9c:	e59f0040 	ldr	r0, [pc, #64]	; 21ae4 <factory_dump_info+0xb4>
   21aa0:	eb003086 	bl	2dcc0 <printf>
   21aa4:	e5941010 	ldr	r1, [r4, #16]
   21aa8:	e59f0038 	ldr	r0, [pc, #56]	; 21ae8 <factory_dump_info+0xb8>
   21aac:	eb003083 	bl	2dcc0 <printf>
   21ab0:	e3a00000 	mov	r0, #0
   21ab4:	e8bd8010 	pop	{r4, pc}
   21ab8:	0006626a 	.word	0x0006626a
   21abc:	0006628b 	.word	0x0006628b
   21ac0:	0007369c 	.word	0x0007369c
   21ac4:	000662a6 	.word	0x000662a6
   21ac8:	000662a1 	.word	0x000662a1
   21acc:	00066626 	.word	0x00066626
   21ad0:	000662ac 	.word	0x000662ac
   21ad4:	000735cc 	.word	0x000735cc
   21ad8:	000662b5 	.word	0x000662b5
   21adc:	000662d2 	.word	0x000662d2
   21ae0:	000662ef 	.word	0x000662ef
   21ae4:	0006630c 	.word	0x0006630c
   21ae8:	00066329 	.word	0x00066329

00021aec <factory_dump_list>:
   21aec:	e92d4030 	push	{r4, r5, lr}
   21af0:	e59f4054 	ldr	r4, [pc, #84]	; 21b4c <factory_dump_list+0x60>
   21af4:	e3a02020 	mov	r2, #32
   21af8:	e59f5050 	ldr	r5, [pc, #80]	; 21b50 <factory_dump_list+0x64>
   21afc:	e24dd014 	sub	sp, sp, #20
   21b00:	e3a01000 	mov	r1, #0
   21b04:	e3a03001 	mov	r3, #1
   21b08:	e1a00005 	mov	r0, r5
   21b0c:	e5843000 	str	r3, [r4]
   21b10:	eb00deb1 	bl	595dc <memset>
   21b14:	e59f1038 	ldr	r1, [pc, #56]	; 21b54 <factory_dump_list+0x68>
   21b18:	e1a00005 	mov	r0, r5
   21b1c:	eb00dda7 	bl	591c0 <strcpy>
   21b20:	e28d300c 	add	r3, sp, #12
   21b24:	e3a02602 	mov	r2, #2097152	; 0x200000
   21b28:	e58d3000 	str	r3, [sp]
   21b2c:	e3a01407 	mov	r1, #117440512	; 0x7000000
   21b30:	e28d3008 	add	r3, sp, #8
   21b34:	e59f001c 	ldr	r0, [pc, #28]	; 21b58 <factory_dump_list+0x6c>
   21b38:	eb00e013 	bl	59b8c <tar_read>
   21b3c:	e3a00000 	mov	r0, #0
   21b40:	e5840000 	str	r0, [r4]
   21b44:	e28dd014 	add	sp, sp, #20
   21b48:	e8bd8030 	pop	{r4, r5, pc}
   21b4c:	000bd048 	.word	0x000bd048
   21b50:	000bd04c 	.word	0x000bd04c
   21b54:	00066346 	.word	0x00066346
   21b58:	00066353 	.word	0x00066353

00021b5c <factory_delete>:
   21b5c:	e92d407f 	push	{r0, r1, r2, r3, r4, r5, r6, lr}
   21b60:	e59f506c 	ldr	r5, [pc, #108]	; 21bd4 <factory_delete+0x78>
   21b64:	e5953000 	ldr	r3, [r5]
   21b68:	e3530000 	cmp	r3, #0
   21b6c:	1a000003 	bne	21b80 <factory_delete+0x24>
   21b70:	e59f0060 	ldr	r0, [pc, #96]	; 21bd8 <factory_delete+0x7c>
   21b74:	eb003051 	bl	2dcc0 <printf>
   21b78:	e3e00000 	mvn	r0, #0
   21b7c:	ea000012 	b	21bcc <factory_delete+0x70>
   21b80:	e1a06000 	mov	r6, r0
   21b84:	e3a02602 	mov	r2, #2097152	; 0x200000
   21b88:	e3a01000 	mov	r1, #0
   21b8c:	e5950004 	ldr	r0, [r5, #4]
   21b90:	eb00de91 	bl	595dc <memset>
   21b94:	e3a04000 	mov	r4, #0
   21b98:	e3a03602 	mov	r3, #2097152	; 0x200000
   21b9c:	e1a02004 	mov	r2, r4
   21ba0:	e98d0018 	stmib	sp, {r3, r4}
   21ba4:	e5953004 	ldr	r3, [r5, #4]
   21ba8:	e1a01006 	mov	r1, r6
   21bac:	e58d3000 	str	r3, [sp]
   21bb0:	e1a03004 	mov	r3, r4
   21bb4:	e5950000 	ldr	r0, [r5]
   21bb8:	eb00e046 	bl	59cd8 <tar_add_or_delete>
   21bbc:	e3a03001 	mov	r3, #1
   21bc0:	e5850008 	str	r0, [r5, #8]
   21bc4:	e1a00004 	mov	r0, r4
   21bc8:	e5853014 	str	r3, [r5, #20]
   21bcc:	e28dd010 	add	sp, sp, #16
   21bd0:	e8bd8070 	pop	{r4, r5, r6, pc}
   21bd4:	000735cc 	.word	0x000735cc
   21bd8:	00066367 	.word	0x00066367

00021bdc <factory_read_by_index>:
   21bdc:	e92d4007 	push	{r0, r1, r2, lr}
   21be0:	e1a0c001 	mov	ip, r1
   21be4:	e59f1030 	ldr	r1, [pc, #48]	; 21c1c <factory_read_by_index+0x40>
   21be8:	e5911000 	ldr	r1, [r1]
   21bec:	e3510000 	cmp	r1, #0
   21bf0:	1a000003 	bne	21c04 <factory_read_by_index+0x28>
   21bf4:	e59f0024 	ldr	r0, [pc, #36]	; 21c20 <factory_read_by_index+0x44>
   21bf8:	eb003030 	bl	2dcc0 <printf>
   21bfc:	e3e00000 	mvn	r0, #0
   21c00:	ea000003 	b	21c14 <factory_read_by_index+0x38>
   21c04:	e58d3000 	str	r3, [sp]
   21c08:	e1a03002 	mov	r3, r2
   21c0c:	e1a0200c 	mov	r2, ip
   21c10:	eb00dfa4 	bl	59aa8 <tar_read_by_index>
   21c14:	e28dd00c 	add	sp, sp, #12
   21c18:	e49df004 	pop	{pc}		; (ldr pc, [sp], #4)
   21c1c:	000735cc 	.word	0x000735cc
   21c20:	00066395 	.word	0x00066395

00021c24 <factory_read>:
   21c24:	e92d4007 	push	{r0, r1, r2, lr}
   21c28:	e1a03001 	mov	r3, r1
   21c2c:	e59f1034 	ldr	r1, [pc, #52]	; 21c68 <factory_read+0x44>
   21c30:	e5911000 	ldr	r1, [r1]
   21c34:	e3510000 	cmp	r1, #0
   21c38:	1a000003 	bne	21c4c <factory_read+0x28>
   21c3c:	e59f0028 	ldr	r0, [pc, #40]	; 21c6c <factory_read+0x48>
   21c40:	eb00301e 	bl	2dcc0 <printf>
   21c44:	e3e00000 	mvn	r0, #0
   21c48:	ea000004 	b	21c60 <factory_read+0x3c>
   21c4c:	e58d2000 	str	r2, [sp]
   21c50:	e3a02602 	mov	r2, #2097152	; 0x200000
   21c54:	eb00dfcc 	bl	59b8c <tar_read>
   21c58:	e16f0f10 	clz	r0, r0
   21c5c:	e1a002a0 	lsr	r0, r0, #5
   21c60:	e28dd00c 	add	sp, sp, #12
   21c64:	e49df004 	pop	{pc}		; (ldr pc, [sp], #4)
   21c68:	000735cc 	.word	0x000735cc
   21c6c:	000663ca 	.word	0x000663ca

00021c70 <factory_write>:
   21c70:	e92d42ff 	push	{r0, r1, r2, r3, r4, r5, r6, r7, r9, lr}
   21c74:	e1a07002 	mov	r7, r2
   21c78:	e2822f7f 	add	r2, r2, #508	; 0x1fc
   21c7c:	e3a03c02 	mov	r3, #512	; 0x200
   21c80:	e2822003 	add	r2, r2, #3
   21c84:	e59f4098 	ldr	r4, [pc, #152]	; 21d24 <factory_write+0xb4>
   21c88:	e712f312 	sdiv	r2, r2, r3
   21c8c:	e5943000 	ldr	r3, [r4]
   21c90:	e3530000 	cmp	r3, #0
   21c94:	059f008c 	ldreq	r0, [pc, #140]	; 21d28 <factory_write+0xb8>
   21c98:	e1a02482 	lsl	r2, r2, #9
   21c9c:	0a000005 	beq	21cb8 <factory_write+0x48>
   21ca0:	e5943008 	ldr	r3, [r4, #8]
   21ca4:	e0822003 	add	r2, r2, r3
   21ca8:	e59f307c 	ldr	r3, [pc, #124]	; 21d2c <factory_write+0xbc>
   21cac:	e1520003 	cmp	r2, r3
   21cb0:	da000003 	ble	21cc4 <factory_write+0x54>
   21cb4:	e59f0074 	ldr	r0, [pc, #116]	; 21d30 <factory_write+0xc0>
   21cb8:	eb003000 	bl	2dcc0 <printf>
   21cbc:	e3e00000 	mvn	r0, #0
   21cc0:	ea000015 	b	21d1c <factory_write+0xac>
   21cc4:	e1a05000 	mov	r5, r0
   21cc8:	e1a06001 	mov	r6, r1
   21ccc:	e3a02602 	mov	r2, #2097152	; 0x200000
   21cd0:	e3a01000 	mov	r1, #0
   21cd4:	e5940004 	ldr	r0, [r4, #4]
   21cd8:	e3a09001 	mov	r9, #1
   21cdc:	eb00de3e 	bl	595dc <memset>
   21ce0:	e3a03602 	mov	r3, #2097152	; 0x200000
   21ce4:	e98d0208 	stmib	sp, {r3, r9}
   21ce8:	e5943004 	ldr	r3, [r4, #4]
   21cec:	e1a02006 	mov	r2, r6
   21cf0:	e58d3000 	str	r3, [sp]
   21cf4:	e1a01005 	mov	r1, r5
   21cf8:	e1a03007 	mov	r3, r7
   21cfc:	e5940000 	ldr	r0, [r4]
   21d00:	eb00dff4 	bl	59cd8 <tar_add_or_delete>
   21d04:	e3500000 	cmp	r0, #0
   21d08:	e5840008 	str	r0, [r4, #8]
   21d0c:	059f0020 	ldreq	r0, [pc, #32]	; 21d34 <factory_write+0xc4>
   21d10:	0affffe8 	beq	21cb8 <factory_write+0x48>
   21d14:	e5849014 	str	r9, [r4, #20]
   21d18:	e3a00000 	mov	r0, #0
   21d1c:	e28dd010 	add	sp, sp, #16
   21d20:	e8bd82f0 	pop	{r4, r5, r6, r7, r9, pc}
   21d24:	000735cc 	.word	0x000735cc
   21d28:	000663f6 	.word	0x000663f6
   21d2c:	001ffe00 	.word	0x001ffe00
   21d30:	00066423 	.word	0x00066423
   21d34:	00066441 	.word	0x00066441

00021d38 <factory_save>:
   21d38:	e92d4ef3 	push	{r0, r1, r4, r5, r6, r7, r9, sl, fp, lr}
   21d3c:	e59f5188 	ldr	r5, [pc, #392]	; 21ecc <factory_save+0x194>
   21d40:	e59f0188 	ldr	r0, [pc, #392]	; 21ed0 <factory_save+0x198>
   21d44:	eb002fdd 	bl	2dcc0 <printf>
   21d48:	e5953000 	ldr	r3, [r5]
   21d4c:	e3530000 	cmp	r3, #0
   21d50:	1a000003 	bne	21d64 <factory_save+0x2c>
   21d54:	e59f0178 	ldr	r0, [pc, #376]	; 21ed4 <factory_save+0x19c>
   21d58:	eb002fd8 	bl	2dcc0 <printf>
   21d5c:	e3e00000 	mvn	r0, #0
   21d60:	ea000057 	b	21ec4 <factory_save+0x18c>
   21d64:	e5953014 	ldr	r3, [r5, #20]
   21d68:	e3530000 	cmp	r3, #0
   21d6c:	0a000050 	beq	21eb4 <factory_save+0x17c>
   21d70:	e5953008 	ldr	r3, [r5, #8]
   21d74:	e3530000 	cmp	r3, #0
   21d78:	da00004d 	ble	21eb4 <factory_save+0x17c>
   21d7c:	e59f3154 	ldr	r3, [pc, #340]	; 21ed8 <factory_save+0x1a0>
   21d80:	e5933000 	ldr	r3, [r3]
   21d84:	e3530001 	cmp	r3, #1
   21d88:	0a000005 	beq	21da4 <factory_save+0x6c>
   21d8c:	3a000002 	bcc	21d9c <factory_save+0x64>
   21d90:	e3530002 	cmp	r3, #2
   21d94:	0a000004 	beq	21dac <factory_save+0x74>
   21d98:	ea000043 	b	21eac <factory_save+0x174>
   21d9c:	e59f0138 	ldr	r0, [pc, #312]	; 21edc <factory_save+0x1a4>
   21da0:	ea000044 	b	21eb8 <factory_save+0x180>
   21da4:	e59f0134 	ldr	r0, [pc, #308]	; 21ee0 <factory_save+0x1a8>
   21da8:	ea000042 	b	21eb8 <factory_save+0x180>
   21dac:	e59f0130 	ldr	r0, [pc, #304]	; 21ee4 <factory_save+0x1ac>
   21db0:	eb002fc2 	bl	2dcc0 <printf>
   21db4:	e5954000 	ldr	r4, [r5]
   21db8:	e5957008 	ldr	r7, [r5, #8]
   21dbc:	e3540000 	cmp	r4, #0
   21dc0:	0a00003d 	beq	21ebc <factory_save+0x184>
   21dc4:	e595600c 	ldr	r6, [r5, #12]
   21dc8:	e3a03052 	mov	r3, #82	; 0x52
   21dcc:	e1a00004 	mov	r0, r4
   21dd0:	e5c431fc 	strb	r3, [r4, #508]	; 0x1fc
   21dd4:	e3560000 	cmp	r6, #0
   21dd8:	e3a03054 	mov	r3, #84	; 0x54
   21ddc:	b3a09000 	movlt	r9, #0
   21de0:	a2866001 	addge	r6, r6, #1
   21de4:	a5959010 	ldrge	r9, [r5, #16]
   21de8:	e3a0b000 	mov	fp, #0
   21dec:	e5c431fd 	strb	r3, [r4, #509]	; 0x1fd
   21df0:	e3a0304b 	mov	r3, #75	; 0x4b
   21df4:	a2899001 	addge	r9, r9, #1
   21df8:	e5c431fe 	strb	r3, [r4, #510]	; 0x1fe
   21dfc:	e5c4b1ff 	strb	fp, [r4, #511]	; 0x1ff
   21e00:	a2066001 	andge	r6, r6, #1
   21e04:	e58471f8 	str	r7, [r4, #504]	; 0x1f8
   21e08:	b1a06009 	movlt	r6, r9
   21e0c:	e58491f4 	str	r9, [r4, #500]	; 0x1f4
   21e10:	eb00ded7 	bl	59974 <tar_fill_checksum>
   21e14:	e59401f8 	ldr	r0, [r4, #504]	; 0x1f8
   21e18:	e3a02c02 	mov	r2, #512	; 0x200
   21e1c:	e1a01004 	mov	r1, r4
   21e20:	e0840000 	add	r0, r4, r0
   21e24:	eb00de0c 	bl	5965c <memcpy>
   21e28:	e59f30b8 	ldr	r3, [pc, #184]	; 21ee8 <factory_save+0x1b0>
   21e2c:	e1570003 	cmp	r7, r3
   21e30:	ca000021 	bgt	21ebc <factory_save+0x184>
   21e34:	e2873c02 	add	r3, r7, #512	; 0x200
   21e38:	e1a0a606 	lsl	sl, r6, #12
   21e3c:	e2877fff 	add	r7, r7, #1020	; 0x3fc
   21e40:	e28aac11 	add	sl, sl, #4352	; 0x1100
   21e44:	e2877003 	add	r7, r7, #3
   21e48:	e1a01003 	mov	r1, r3
   21e4c:	e1a02004 	mov	r2, r4
   21e50:	e1a0000a 	mov	r0, sl
   21e54:	e58d3004 	str	r3, [sp, #4]
   21e58:	eb008904 	bl	44270 <rtk_eMMC_write>
   21e5c:	e15004a7 	cmp	r0, r7, lsr #9
   21e60:	e59d3004 	ldr	r3, [sp, #4]
   21e64:	159f0080 	ldrne	r0, [pc, #128]	; 21eec <factory_save+0x1b4>
   21e68:	1a000012 	bne	21eb8 <factory_save+0x180>
   21e6c:	e1a02004 	mov	r2, r4
   21e70:	e1a0100a 	mov	r1, sl
   21e74:	e59f0074 	ldr	r0, [pc, #116]	; 21ef0 <factory_save+0x1b8>
   21e78:	eb002f90 	bl	2dcc0 <printf>
   21e7c:	e1a02006 	mov	r2, r6
   21e80:	e1a01009 	mov	r1, r9
   21e84:	e59f0068 	ldr	r0, [pc, #104]	; 21ef4 <factory_save+0x1bc>
   21e88:	eb002f8c 	bl	2dcc0 <printf>
   21e8c:	e59401f8 	ldr	r0, [r4, #504]	; 0x1f8
   21e90:	e3a02c02 	mov	r2, #512	; 0x200
   21e94:	e1a0100b 	mov	r1, fp
   21e98:	e0840000 	add	r0, r4, r0
   21e9c:	eb00ddce 	bl	595dc <memset>
   21ea0:	e585600c 	str	r6, [r5, #12]
   21ea4:	e5859010 	str	r9, [r5, #16]
   21ea8:	ea000003 	b	21ebc <factory_save+0x184>
   21eac:	e59f0044 	ldr	r0, [pc, #68]	; 21ef8 <factory_save+0x1c0>
   21eb0:	ea000000 	b	21eb8 <factory_save+0x180>
   21eb4:	e59f0040 	ldr	r0, [pc, #64]	; 21efc <factory_save+0x1c4>
   21eb8:	eb002f80 	bl	2dcc0 <printf>
   21ebc:	e3a00000 	mov	r0, #0
   21ec0:	e5850014 	str	r0, [r5, #20]
   21ec4:	e28dd008 	add	sp, sp, #8
   21ec8:	e8bd8ef0 	pop	{r4, r5, r6, r7, r9, sl, fp, pc}
   21ecc:	000735cc 	.word	0x000735cc
   21ed0:	0006646e 	.word	0x0006646e
   21ed4:	00066483 	.word	0x00066483
   21ed8:	0007369c 	.word	0x0007369c
   21edc:	000662a1 	.word	0x000662a1
   21ee0:	000662a6 	.word	0x000662a6
   21ee4:	00066626 	.word	0x00066626
   21ee8:	001ffe00 	.word	0x001ffe00
   21eec:	000664a4 	.word	0x000664a4
   21ef0:	000664c4 	.word	0x000664c4
   21ef4:	000664fa 	.word	0x000664fa
   21ef8:	000662ac 	.word	0x000662ac
   21efc:	00066521 	.word	0x00066521

00021f00 <factory_reset>:
   21f00:	e92d42f0 	push	{r4, r5, r6, r7, r9, lr}
   21f04:	e59f609c 	ldr	r6, [pc, #156]	; 21fa8 <factory_reset+0xa8>
   21f08:	e5960000 	ldr	r0, [r6]
   21f0c:	e3500000 	cmp	r0, #0
   21f10:	1a000003 	bne	21f24 <factory_reset+0x24>
   21f14:	e59f0090 	ldr	r0, [pc, #144]	; 21fac <factory_reset+0xac>
   21f18:	eb002f68 	bl	2dcc0 <printf>
   21f1c:	e3e00000 	mvn	r0, #0
   21f20:	e8bd82f0 	pop	{r4, r5, r6, r7, r9, pc}
   21f24:	e3a04000 	mov	r4, #0
   21f28:	e3a02602 	mov	r2, #2097152	; 0x200000
   21f2c:	e1a01004 	mov	r1, r4
   21f30:	e3a07c02 	mov	r7, #512	; 0x200
   21f34:	e5864010 	str	r4, [r6, #16]
   21f38:	e5867008 	str	r7, [r6, #8]
   21f3c:	eb00dda6 	bl	595dc <memset>
   21f40:	e5965000 	ldr	r5, [r6]
   21f44:	e1a02004 	mov	r2, r4
   21f48:	e59f1060 	ldr	r1, [pc, #96]	; 21fb0 <factory_reset+0xb0>
   21f4c:	e3a03035 	mov	r3, #53	; 0x35
   21f50:	e1a00005 	mov	r0, r5
   21f54:	eb00de93 	bl	599a8 <tar_build_header>
   21f58:	e5c541ff 	strb	r4, [r5, #511]	; 0x1ff
   21f5c:	e58571f8 	str	r7, [r5, #504]	; 0x1f8
   21f60:	e1a00005 	mov	r0, r5
   21f64:	e58541f4 	str	r4, [r5, #500]	; 0x1f4
   21f68:	e3a03052 	mov	r3, #82	; 0x52
   21f6c:	e5c531fc 	strb	r3, [r5, #508]	; 0x1fc
   21f70:	e3a03054 	mov	r3, #84	; 0x54
   21f74:	e5c531fd 	strb	r3, [r5, #509]	; 0x1fd
   21f78:	e3a0304b 	mov	r3, #75	; 0x4b
   21f7c:	e5c531fe 	strb	r3, [r5, #510]	; 0x1fe
   21f80:	eb00de7b 	bl	59974 <tar_fill_checksum>
   21f84:	e1a00005 	mov	r0, r5
   21f88:	eb00de63 	bl	5991c <tar_check_header>
   21f8c:	e3a05001 	mov	r5, #1
   21f90:	e5865014 	str	r5, [r6, #20]
   21f94:	ebffff67 	bl	21d38 <factory_save>
   21f98:	e5865014 	str	r5, [r6, #20]
   21f9c:	ebffff65 	bl	21d38 <factory_save>
   21fa0:	e1a00004 	mov	r0, r4
   21fa4:	e8bd82f0 	pop	{r4, r5, r6, r7, r9, pc}
   21fa8:	000735cc 	.word	0x000735cc
   21fac:	0006652c 	.word	0x0006652c
   21fb0:	00066346 	.word	0x00066346

00021fb4 <do_factory>:
   21fb4:	e3520001 	cmp	r2, #1
   21fb8:	e92d4073 	push	{r0, r1, r4, r5, r6, lr}
   21fbc:	da00005b 	ble	22130 <do_factory+0x17c>
   21fc0:	e59f1178 	ldr	r1, [pc, #376]	; 22140 <do_factory+0x18c>
   21fc4:	e1a04003 	mov	r4, r3
   21fc8:	e5930004 	ldr	r0, [r3, #4]
   21fcc:	e1a06002 	mov	r6, r2
   21fd0:	eb00dcaa 	bl	59280 <strcmp>
   21fd4:	e2505000 	subs	r5, r0, #0
   21fd8:	1a000001 	bne	21fe4 <do_factory+0x30>
   21fdc:	ebffff55 	bl	21d38 <factory_save>
   21fe0:	ea000053 	b	22134 <do_factory+0x180>
   21fe4:	e59f1158 	ldr	r1, [pc, #344]	; 22144 <do_factory+0x190>
   21fe8:	e5940004 	ldr	r0, [r4, #4]
   21fec:	eb00dca3 	bl	59280 <strcmp>
   21ff0:	e2505000 	subs	r5, r0, #0
   21ff4:	1a000001 	bne	22000 <do_factory+0x4c>
   21ff8:	ebffffc0 	bl	21f00 <factory_reset>
   21ffc:	ea00004c 	b	22134 <do_factory+0x180>
   22000:	e59f1140 	ldr	r1, [pc, #320]	; 22148 <do_factory+0x194>
   22004:	e5940004 	ldr	r0, [r4, #4]
   22008:	eb00dc9c 	bl	59280 <strcmp>
   2200c:	e2505000 	subs	r5, r0, #0
   22010:	1a000001 	bne	2201c <do_factory+0x68>
   22014:	ebfffe85 	bl	21a30 <factory_dump_info>
   22018:	ea000045 	b	22134 <do_factory+0x180>
   2201c:	e59f1128 	ldr	r1, [pc, #296]	; 2214c <do_factory+0x198>
   22020:	e5940004 	ldr	r0, [r4, #4]
   22024:	eb00dc95 	bl	59280 <strcmp>
   22028:	e2505000 	subs	r5, r0, #0
   2202c:	1a000001 	bne	22038 <do_factory+0x84>
   22030:	ebfffead 	bl	21aec <factory_dump_list>
   22034:	ea00003e 	b	22134 <do_factory+0x180>
   22038:	e59f1110 	ldr	r1, [pc, #272]	; 22150 <do_factory+0x19c>
   2203c:	e5940004 	ldr	r0, [r4, #4]
   22040:	eb00dc8e 	bl	59280 <strcmp>
   22044:	e2505000 	subs	r5, r0, #0
   22048:	1a000002 	bne	22058 <do_factory+0xa4>
   2204c:	e5940008 	ldr	r0, [r4, #8]
   22050:	ebfffec1 	bl	21b5c <factory_delete>
   22054:	ea000036 	b	22134 <do_factory+0x180>
   22058:	e59f10f4 	ldr	r1, [pc, #244]	; 22154 <do_factory+0x1a0>
   2205c:	e5940004 	ldr	r0, [r4, #4]
   22060:	eb00dc86 	bl	59280 <strcmp>
   22064:	e2505000 	subs	r5, r0, #0
   22068:	1a00001c 	bne	220e0 <do_factory+0x12c>
   2206c:	e28d2004 	add	r2, sp, #4
   22070:	e1a0100d 	mov	r1, sp
   22074:	e5940008 	ldr	r0, [r4, #8]
   22078:	ebfffee9 	bl	21c24 <factory_read>
   2207c:	e3500000 	cmp	r0, #0
   22080:	0a000003 	beq	22094 <do_factory+0xe0>
   22084:	e5941008 	ldr	r1, [r4, #8]
   22088:	e59f00c8 	ldr	r0, [pc, #200]	; 22158 <do_factory+0x1a4>
   2208c:	eb002f0b 	bl	2dcc0 <printf>
   22090:	ea000004 	b	220a8 <do_factory+0xf4>
   22094:	e59d3000 	ldr	r3, [sp]
   22098:	e59d2004 	ldr	r2, [sp, #4]
   2209c:	e5941008 	ldr	r1, [r4, #8]
   220a0:	e59f00b4 	ldr	r0, [pc, #180]	; 2215c <do_factory+0x1a8>
   220a4:	eb002f05 	bl	2dcc0 <printf>
   220a8:	e3560004 	cmp	r6, #4
   220ac:	1a000020 	bne	22134 <do_factory+0x180>
   220b0:	e3a02010 	mov	r2, #16
   220b4:	e3a01000 	mov	r1, #0
   220b8:	e594000c 	ldr	r0, [r4, #12]
   220bc:	eb00e26a 	bl	5aa6c <simple_strtoul>
   220c0:	e1a04000 	mov	r4, r0
   220c4:	e89d0006 	ldm	sp, {r1, r2}
   220c8:	eb00dd63 	bl	5965c <memcpy>
   220cc:	e1a02004 	mov	r2, r4
   220d0:	e59d1000 	ldr	r1, [sp]
   220d4:	e59f0084 	ldr	r0, [pc, #132]	; 22160 <do_factory+0x1ac>
   220d8:	eb002ef8 	bl	2dcc0 <printf>
   220dc:	ea000014 	b	22134 <do_factory+0x180>
   220e0:	e59f107c 	ldr	r1, [pc, #124]	; 22164 <do_factory+0x1b0>
   220e4:	e5940004 	ldr	r0, [r4, #4]
   220e8:	eb00dc64 	bl	59280 <strcmp>
   220ec:	e2505000 	subs	r5, r0, #0
   220f0:	1a00000e 	bne	22130 <do_factory+0x17c>
   220f4:	e1a01005 	mov	r1, r5
   220f8:	e3a02010 	mov	r2, #16
   220fc:	e594000c 	ldr	r0, [r4, #12]
   22100:	eb00e259 	bl	5aa6c <simple_strtoul>
   22104:	e1a01005 	mov	r1, r5
   22108:	e58d0000 	str	r0, [sp]
   2210c:	e3a02010 	mov	r2, #16
   22110:	e5940010 	ldr	r0, [r4, #16]
   22114:	eb00e254 	bl	5aa6c <simple_strtoul>
   22118:	e59d1000 	ldr	r1, [sp]
   2211c:	e1a02000 	mov	r2, r0
   22120:	e58d0004 	str	r0, [sp, #4]
   22124:	e5940008 	ldr	r0, [r4, #8]
   22128:	ebfffed0 	bl	21c70 <factory_write>
   2212c:	ea000000 	b	22134 <do_factory+0x180>
   22130:	e3e05000 	mvn	r5, #0
   22134:	e1a00005 	mov	r0, r5
   22138:	e28dd008 	add	sp, sp, #8
   2213c:	e8bd8070 	pop	{r4, r5, r6, pc}
   22140:	00066559 	.word	0x00066559
   22144:	0006655e 	.word	0x0006655e
   22148:	000670a8 	.word	0x000670a8
   2214c:	000666d9 	.word	0x000666d9
   22150:	00066564 	.word	0x00066564
   22154:	0006656b 	.word	0x0006656b
   22158:	00066570 	.word	0x00066570
   2215c:	00066584 	.word	0x00066584
   22160:	0006659c 	.word	0x0006659c
   22164:	0006a403 	.word	0x0006a403

00022168 <factory_init>:
   22168:	e92d4ef0 	push	{r4, r5, r6, r7, r9, sl, fp, lr}
   2216c:	e59f42cc 	ldr	r4, [pc, #716]	; 22440 <factory_init+0x2d8>
   22170:	e3a03672 	mov	r3, #119537664	; 0x7200000
   22174:	e3a02407 	mov	r2, #117440512	; 0x7000000
   22178:	e24dd028 	sub	sp, sp, #40	; 0x28
   2217c:	e884000c 	stm	r4, {r2, r3}
   22180:	e59f32bc 	ldr	r3, [pc, #700]	; 22444 <factory_init+0x2dc>
   22184:	e5933000 	ldr	r3, [r3]
   22188:	e3530001 	cmp	r3, #1
   2218c:	0a000005 	beq	221a8 <factory_init+0x40>
   22190:	3a000002 	bcc	221a0 <factory_init+0x38>
   22194:	e3530002 	cmp	r3, #2
   22198:	0a000007 	beq	221bc <factory_init+0x54>
   2219c:	ea0000a2 	b	2242c <factory_init+0x2c4>
   221a0:	e59f02a0 	ldr	r0, [pc, #672]	; 22448 <factory_init+0x2e0>
   221a4:	ea000000 	b	221ac <factory_init+0x44>
   221a8:	e59f029c 	ldr	r0, [pc, #668]	; 2244c <factory_init+0x2e4>
   221ac:	eb002ec3 	bl	2dcc0 <printf>
   221b0:	e3a03000 	mov	r3, #0
   221b4:	e5843008 	str	r3, [r4, #8]
   221b8:	ea00009d 	b	22434 <factory_init+0x2cc>
   221bc:	e59f028c 	ldr	r0, [pc, #652]	; 22450 <factory_init+0x2e8>
   221c0:	e1a05004 	mov	r5, r4
   221c4:	eb002ebd 	bl	2dcc0 <printf>
   221c8:	e5944000 	ldr	r4, [r4]
   221cc:	e3a0200d 	mov	r2, #13
   221d0:	e59f127c 	ldr	r1, [pc, #636]	; 22454 <factory_init+0x2ec>
   221d4:	e28d0018 	add	r0, sp, #24
   221d8:	eb00dd1f 	bl	5965c <memcpy>
   221dc:	e3540000 	cmp	r4, #0
   221e0:	1a000003 	bne	221f4 <factory_init+0x8c>
   221e4:	e59f026c 	ldr	r0, [pc, #620]	; 22458 <factory_init+0x2f0>
   221e8:	eb002eb4 	bl	2dcc0 <printf>
   221ec:	e3e03000 	mvn	r3, #0
   221f0:	ea00008b 	b	22424 <factory_init+0x2bc>
   221f4:	e3a02602 	mov	r2, #2097152	; 0x200000
   221f8:	e3a01000 	mov	r1, #0
   221fc:	e1a00004 	mov	r0, r4
   22200:	e3a0a000 	mov	sl, #0
   22204:	eb00dcf4 	bl	595dc <memset>
   22208:	e3a00c02 	mov	r0, #512	; 0x200
   2220c:	eb00307a 	bl	2e3fc <malloc>
   22210:	e1a06000 	mov	r6, r0
   22214:	e3a00b01 	mov	r0, #1024	; 0x400
   22218:	e1a0900a 	mov	r9, sl
   2221c:	eb003076 	bl	2e3fc <malloc>
   22220:	e1a0700a 	mov	r7, sl
   22224:	e1a0b000 	mov	fp, r0
   22228:	e1a00607 	lsl	r0, r7, #12
   2222c:	e1a02006 	mov	r2, r6
   22230:	e3a01c02 	mov	r1, #512	; 0x200
   22234:	e2800c11 	add	r0, r0, #4352	; 0x1100
   22238:	eb0081d9 	bl	429a4 <rtk_eMMC_read>
   2223c:	e3500001 	cmp	r0, #1
   22240:	e58d0004 	str	r0, [sp, #4]
   22244:	0a000002 	beq	22254 <factory_init+0xec>
   22248:	e59f020c 	ldr	r0, [pc, #524]	; 2245c <factory_init+0x2f4>
   2224c:	eb002e9b 	bl	2dcc0 <printf>
   22250:	ea00002b 	b	22304 <factory_init+0x19c>
   22254:	e35a0000 	cmp	sl, #0
   22258:	1a000029 	bne	22304 <factory_init+0x19c>
   2225c:	e28d1018 	add	r1, sp, #24
   22260:	e1a00006 	mov	r0, r6
   22264:	eb00dc05 	bl	59280 <strcmp>
   22268:	e3500000 	cmp	r0, #0
   2226c:	1a000025 	bne	22308 <factory_init+0x1a0>
   22270:	e1a00006 	mov	r0, r6
   22274:	eb00dda8 	bl	5991c <tar_check_header>
   22278:	e3500000 	cmp	r0, #0
   2227c:	1a000021 	bne	22308 <factory_init+0x1a0>
   22280:	e59631f8 	ldr	r3, [r6, #504]	; 0x1f8
   22284:	e35300ff 	cmp	r3, #255	; 0xff
   22288:	9a00001e 	bls	22308 <factory_init+0x1a0>
   2228c:	e59f11cc 	ldr	r1, [pc, #460]	; 22460 <factory_init+0x2f8>
   22290:	e2860f7f 	add	r0, r6, #508	; 0x1fc
   22294:	eb00dbf9 	bl	59280 <strcmp>
   22298:	e3500000 	cmp	r0, #0
   2229c:	1a000019 	bne	22308 <factory_init+0x1a0>
   222a0:	e59601f8 	ldr	r0, [r6, #504]	; 0x1f8
   222a4:	e59f31b8 	ldr	r3, [pc, #440]	; 22464 <factory_init+0x2fc>
   222a8:	e1500003 	cmp	r0, r3
   222ac:	8a000015 	bhi	22308 <factory_init+0x1a0>
   222b0:	e28d2008 	add	r2, sp, #8
   222b4:	e59631f4 	ldr	r3, [r6, #500]	; 0x1f4
   222b8:	e3a01b01 	mov	r1, #1024	; 0x400
   222bc:	e7823107 	str	r3, [r2, r7, lsl #2]
   222c0:	e28d3010 	add	r3, sp, #16
   222c4:	e1a0200b 	mov	r2, fp
   222c8:	e7830107 	str	r0, [r3, r7, lsl #2]
   222cc:	e2800822 	add	r0, r0, #2228224	; 0x220000
   222d0:	e0800a87 	add	r0, r0, r7, lsl #21
   222d4:	e1a004a0 	lsr	r0, r0, #9
   222d8:	eb0081b1 	bl	429a4 <rtk_eMMC_read>
   222dc:	e59601f8 	ldr	r0, [r6, #504]	; 0x1f8
   222e0:	e3a02c02 	mov	r2, #512	; 0x200
   222e4:	e1a01006 	mov	r1, r6
   222e8:	e7e80050 	ubfx	r0, r0, #0, #9
   222ec:	e08b0000 	add	r0, fp, r0
   222f0:	eb00dd06 	bl	59710 <memcmp>
   222f4:	e3500000 	cmp	r0, #0
   222f8:	059d3004 	ldreq	r3, [sp, #4]
   222fc:	01899713 	orreq	r9, r9, r3, lsl r7
   22300:	ea000000 	b	22308 <factory_init+0x1a0>
   22304:	e3e0a000 	mvn	sl, #0
   22308:	e3570001 	cmp	r7, #1
   2230c:	13a07001 	movne	r7, #1
   22310:	1affffc4 	bne	22228 <factory_init+0xc0>
   22314:	e1a00006 	mov	r0, r6
   22318:	eb002fad 	bl	2e1d4 <free>
   2231c:	e1a0000b 	mov	r0, fp
   22320:	eb002fab 	bl	2e1d4 <free>
   22324:	e3590002 	cmp	r9, #2
   22328:	0a00000e 	beq	22368 <factory_init+0x200>
   2232c:	e3590003 	cmp	r9, #3
   22330:	0a000002 	beq	22340 <factory_init+0x1d8>
   22334:	e3590001 	cmp	r9, #1
   22338:	1a00000c 	bne	22370 <factory_init+0x208>
   2233c:	ea000006 	b	2235c <factory_init+0x1f4>
   22340:	e59d300c 	ldr	r3, [sp, #12]
   22344:	e59d2008 	ldr	r2, [sp, #8]
   22348:	e1530002 	cmp	r3, r2
   2234c:	9a000002 	bls	2235c <factory_init+0x1f4>
   22350:	e0623003 	rsb	r3, r2, r3
   22354:	e3730010 	cmn	r3, #16
   22358:	9a000002 	bls	22368 <factory_init+0x200>
   2235c:	e3a03000 	mov	r3, #0
   22360:	e585300c 	str	r3, [r5, #12]
   22364:	ea00001a 	b	223d4 <factory_init+0x26c>
   22368:	e585700c 	str	r7, [r5, #12]
   2236c:	ea000018 	b	223d4 <factory_init+0x26c>
   22370:	e3a02000 	mov	r2, #0
   22374:	e59f10d8 	ldr	r1, [pc, #216]	; 22454 <factory_init+0x2ec>
   22378:	e3a03035 	mov	r3, #53	; 0x35
   2237c:	e1a00004 	mov	r0, r4
   22380:	eb00dd88 	bl	599a8 <tar_build_header>
   22384:	e3a03052 	mov	r3, #82	; 0x52
   22388:	e5c431fc 	strb	r3, [r4, #508]	; 0x1fc
   2238c:	e3a03054 	mov	r3, #84	; 0x54
   22390:	e5c431fd 	strb	r3, [r4, #509]	; 0x1fd
   22394:	e3a0304b 	mov	r3, #75	; 0x4b
   22398:	e5c431fe 	strb	r3, [r4, #510]	; 0x1fe
   2239c:	e3a03000 	mov	r3, #0
   223a0:	e5c431ff 	strb	r3, [r4, #511]	; 0x1ff
   223a4:	e3a06c02 	mov	r6, #512	; 0x200
   223a8:	e5953010 	ldr	r3, [r5, #16]
   223ac:	e1a00004 	mov	r0, r4
   223b0:	e58431f4 	str	r3, [r4, #500]	; 0x1f4
   223b4:	e58461f8 	str	r6, [r4, #504]	; 0x1f8
   223b8:	eb00dd6d 	bl	59974 <tar_fill_checksum>
   223bc:	e1a00004 	mov	r0, r4
   223c0:	eb00dd55 	bl	5991c <tar_check_header>
   223c4:	e59f009c 	ldr	r0, [pc, #156]	; 22468 <factory_init+0x300>
   223c8:	eb002e3c 	bl	2dcc0 <printf>
   223cc:	e1a03006 	mov	r3, r6
   223d0:	ea000013 	b	22424 <factory_init+0x2bc>
   223d4:	e595000c 	ldr	r0, [r5, #12]
   223d8:	e28d3028 	add	r3, sp, #40	; 0x28
   223dc:	e1a02004 	mov	r2, r4
   223e0:	e0833100 	add	r3, r3, r0, lsl #2
   223e4:	e1a00600 	lsl	r0, r0, #12
   223e8:	e2800c11 	add	r0, r0, #4352	; 0x1100
   223ec:	e5131018 	ldr	r1, [r3, #-24]
   223f0:	eb00816b 	bl	429a4 <rtk_eMMC_read>
   223f4:	e595100c 	ldr	r1, [r5, #12]
   223f8:	e28d3028 	add	r3, sp, #40	; 0x28
   223fc:	e59f0068 	ldr	r0, [pc, #104]	; 2246c <factory_init+0x304>
   22400:	e0833101 	add	r3, r3, r1, lsl #2
   22404:	e5132020 	ldr	r2, [r3, #-32]
   22408:	e5133018 	ldr	r3, [r3, #-24]
   2240c:	e5852010 	str	r2, [r5, #16]
   22410:	eb002e2a 	bl	2dcc0 <printf>
   22414:	e595300c 	ldr	r3, [r5, #12]
   22418:	e28d2028 	add	r2, sp, #40	; 0x28
   2241c:	e0823103 	add	r3, r2, r3, lsl #2
   22420:	e5133018 	ldr	r3, [r3, #-24]
   22424:	e5853008 	str	r3, [r5, #8]
   22428:	ea000001 	b	22434 <factory_init+0x2cc>
   2242c:	e59f003c 	ldr	r0, [pc, #60]	; 22470 <factory_init+0x308>
   22430:	eb002e22 	bl	2dcc0 <printf>
   22434:	e3a00000 	mov	r0, #0
   22438:	e28dd028 	add	sp, sp, #40	; 0x28
   2243c:	e8bd8ef0 	pop	{r4, r5, r6, r7, r9, sl, fp, pc}
   22440:	000735cc 	.word	0x000735cc
   22444:	0007369c 	.word	0x0007369c
   22448:	000662a1 	.word	0x000662a1
   2244c:	000662a6 	.word	0x000662a6
   22450:	00066626 	.word	0x00066626
   22454:	00066346 	.word	0x00066346
   22458:	000665b5 	.word	0x000665b5
   2245c:	000665d8 	.word	0x000665d8
   22460:	00066608 	.word	0x00066608
   22464:	001ffdff 	.word	0x001ffdff
   22468:	0006660c 	.word	0x0006660c
   2246c:	0006662b 	.word	0x0006662b
   22470:	000662ac 	.word	0x000662ac

00022474 <malloc_noncache>:
   22474:	e92d4070 	push	{r4, r5, r6, lr}
   22478:	e59f5050 	ldr	r5, [pc, #80]	; 224d0 <malloc_noncache+0x5c>
   2247c:	e1a04000 	mov	r4, r0
   22480:	e5950000 	ldr	r0, [r5]
   22484:	e5953004 	ldr	r3, [r5, #4]
   22488:	e0842000 	add	r2, r4, r0
   2248c:	e1520003 	cmp	r2, r3
   22490:	9a000008 	bls	224b8 <malloc_noncache+0x44>
   22494:	e59f0038 	ldr	r0, [pc, #56]	; 224d4 <malloc_noncache+0x60>
   22498:	eb002e08 	bl	2dcc0 <printf>
   2249c:	e1a02004 	mov	r2, r4
   224a0:	e895000a 	ldm	r5, {r1, r3}
   224a4:	e0431001 	sub	r1, r3, r1
   224a8:	e59f0028 	ldr	r0, [pc, #40]	; 224d8 <malloc_noncache+0x64>
   224ac:	eb002e03 	bl	2dcc0 <printf>
   224b0:	e3a00000 	mov	r0, #0
   224b4:	e8bd8070 	pop	{r4, r5, r6, pc}
   224b8:	e3140003 	tst	r4, #3
   224bc:	13c44003 	bicne	r4, r4, #3
   224c0:	12844004 	addne	r4, r4, #4
   224c4:	e0844000 	add	r4, r4, r0
   224c8:	e5854000 	str	r4, [r5]
   224cc:	e8bd8070 	pop	{r4, r5, r6, pc}
   224d0:	000735e4 	.word	0x000735e4
   224d4:	000666de 	.word	0x000666de
   224d8:	000666f5 	.word	0x000666f5

000224dc <malloc_noncache_align>:
   224dc:	e92d4070 	push	{r4, r5, r6, lr}
   224e0:	e59f506c 	ldr	r5, [pc, #108]	; 22554 <malloc_noncache_align+0x78>
   224e4:	e1a04000 	mov	r4, r0
   224e8:	e5952000 	ldr	r2, [r5]
   224ec:	e5953004 	ldr	r3, [r5, #4]
   224f0:	e0800002 	add	r0, r0, r2
   224f4:	e1500003 	cmp	r0, r3
   224f8:	9a000008 	bls	22520 <malloc_noncache_align+0x44>
   224fc:	e59f0054 	ldr	r0, [pc, #84]	; 22558 <malloc_noncache_align+0x7c>
   22500:	eb002dee 	bl	2dcc0 <printf>
   22504:	e1a02004 	mov	r2, r4
   22508:	e895000a 	ldm	r5, {r1, r3}
   2250c:	e0431001 	sub	r1, r3, r1
   22510:	e59f0044 	ldr	r0, [pc, #68]	; 2255c <malloc_noncache_align+0x80>
   22514:	eb002de9 	bl	2dcc0 <printf>
   22518:	e3a00000 	mov	r0, #0
   2251c:	e8bd8070 	pop	{r4, r5, r6, pc}
   22520:	e733f112 	udiv	r3, r2, r1
   22524:	e0632391 	mls	r3, r1, r3, r2
   22528:	e3530000 	cmp	r3, #0
   2252c:	10811002 	addne	r1, r1, r2
   22530:	10631001 	rsbne	r1, r3, r1
   22534:	15851000 	strne	r1, [r5]
   22538:	e3140003 	tst	r4, #3
   2253c:	13c44003 	bicne	r4, r4, #3
   22540:	e5950000 	ldr	r0, [r5]
   22544:	12844004 	addne	r4, r4, #4
   22548:	e0844000 	add	r4, r4, r0
   2254c:	e5854000 	str	r4, [r5]
   22550:	e8bd8070 	pop	{r4, r5, r6, pc}
   22554:	000735e4 	.word	0x000735e4
   22558:	000666de 	.word	0x000666de
   2255c:	000666f5 	.word	0x000666f5

00022560 <mem_malloc_noncache_check>:
   22560:	e59f3024 	ldr	r3, [pc, #36]	; 2258c <mem_malloc_noncache_check+0x2c>
   22564:	e5932008 	ldr	r2, [r3, #8]
   22568:	e1500002 	cmp	r0, r2
   2256c:	3a000004 	bcc	22584 <mem_malloc_noncache_check+0x24>
   22570:	e5933004 	ldr	r3, [r3, #4]
   22574:	e1500003 	cmp	r0, r3
   22578:	83a00000 	movhi	r0, #0
   2257c:	93a00001 	movls	r0, #1
   22580:	e12fff1e 	bx	lr
   22584:	e3a00000 	mov	r0, #0
   22588:	e12fff1e 	bx	lr
   2258c:	000735e4 	.word	0x000735e4

00022590 <mem_malloc_noncache_init>:
   22590:	e59f3010 	ldr	r3, [pc, #16]	; 225a8 <mem_malloc_noncache_init+0x18>
   22594:	e0801001 	add	r1, r0, r1
   22598:	e5830008 	str	r0, [r3, #8]
   2259c:	e5830000 	str	r0, [r3]
   225a0:	e5831004 	str	r1, [r3, #4]
   225a4:	e12fff1e 	bx	lr
   225a8:	000735e4 	.word	0x000735e4

000225ac <allocat_md_cmd>:
   225ac:	e92d4070 	push	{r4, r5, r6, lr}
   225b0:	e1a05200 	lsl	r5, r0, #4
   225b4:	e3a00010 	mov	r0, #16
   225b8:	e1a01005 	mov	r1, r5
   225bc:	eb003267 	bl	2ef60 <memalign>
   225c0:	e2504000 	subs	r4, r0, #0
   225c4:	1a000004 	bne	225dc <allocat_md_cmd+0x30>
   225c8:	e59f0020 	ldr	r0, [pc, #32]	; 225f0 <allocat_md_cmd+0x44>
   225cc:	eb002dbb 	bl	2dcc0 <printf>
   225d0:	e1a00004 	mov	r0, r4
   225d4:	eb002efe 	bl	2e1d4 <free>
   225d8:	ea000002 	b	225e8 <allocat_md_cmd+0x3c>
   225dc:	e1a02005 	mov	r2, r5
   225e0:	e3a01000 	mov	r1, #0
   225e4:	eb00dbfc 	bl	595dc <memset>
   225e8:	e1a00004 	mov	r0, r4
   225ec:	e8bd8070 	pop	{r4, r5, r6, pc}
   225f0:	00066720 	.word	0x00066720

000225f4 <md_memcpy>:
   225f4:	e92d4ef0 	push	{r4, r5, r6, r7, r9, sl, fp, lr}
   225f8:	e1a05a22 	lsr	r5, r2, #20
   225fc:	e1a0a000 	mov	sl, r0
   22600:	e2855001 	add	r5, r5, #1
   22604:	e1a0b001 	mov	fp, r1
   22608:	e1a00005 	mov	r0, r5
   2260c:	e1a06002 	mov	r6, r2
   22610:	ebffffe5 	bl	225ac <allocat_md_cmd>
   22614:	e2504000 	subs	r4, r0, #0
   22618:	1a000009 	bne	22644 <md_memcpy+0x50>
   2261c:	e35a0a1f 	cmp	sl, #126976	; 0x1f000
   22620:	2a000002 	bcs	22630 <md_memcpy+0x3c>
   22624:	e59f011c 	ldr	r0, [pc, #284]	; 22748 <md_memcpy+0x154>
   22628:	eb002da4 	bl	2dcc0 <printf>
   2262c:	ea000043 	b	22740 <md_memcpy+0x14c>
   22630:	e1a02006 	mov	r2, r6
   22634:	e1a0100b 	mov	r1, fp
   22638:	e1a0000a 	mov	r0, sl
   2263c:	eb00dc06 	bl	5965c <memcpy>
   22640:	ea00003e 	b	22740 <md_memcpy+0x14c>
   22644:	e1a0900a 	mov	r9, sl
   22648:	e1a0700b 	mov	r7, fp
   2264c:	e1a03004 	mov	r3, r4
   22650:	e3a02000 	mov	r2, #0
   22654:	e3a00005 	mov	r0, #5
   22658:	e3560601 	cmp	r6, #1048576	; 0x100000
   2265c:	e7840202 	str	r0, [r4, r2, lsl #4]
   22660:	e2822001 	add	r2, r2, #1
   22664:	31a01006 	movcc	r1, r6
   22668:	23a01601 	movcs	r1, #1048576	; 0x100000
   2266c:	e1520005 	cmp	r2, r5
   22670:	e5839004 	str	r9, [r3, #4]
   22674:	e0616006 	rsb	r6, r1, r6
   22678:	e5837008 	str	r7, [r3, #8]
   2267c:	e0899001 	add	r9, r9, r1
   22680:	e583100c 	str	r1, [r3, #12]
   22684:	e0877001 	add	r7, r7, r1
   22688:	e2833010 	add	r3, r3, #16
   2268c:	3afffff1 	bcc	22658 <md_memcpy+0x64>
   22690:	f57ff05f 	dmb	sy
   22694:	e59f30b0 	ldr	r3, [pc, #176]	; 2274c <md_memcpy+0x158>
   22698:	e3a02000 	mov	r2, #0
   2269c:	e5832020 	str	r2, [r3, #32]
   226a0:	f57ff05f 	dmb	sy
   226a4:	e1a05205 	lsl	r5, r5, #4
   226a8:	e1a00004 	mov	r0, r4
   226ac:	e1a01005 	mov	r1, r5
   226b0:	ebfffbeb 	bl	21664 <flush_cache>
   226b4:	e59f3094 	ldr	r3, [pc, #148]	; 22750 <md_memcpy+0x15c>
   226b8:	e3a02006 	mov	r2, #6
   226bc:	e5832060 	str	r2, [r3, #96]	; 0x60
   226c0:	e3a0203e 	mov	r2, #62	; 0x3e
   226c4:	e5832064 	str	r2, [r3, #100]	; 0x64
   226c8:	e583406c 	str	r4, [r3, #108]	; 0x6c
   226cc:	e5834074 	str	r4, [r3, #116]	; 0x74
   226d0:	e0844005 	add	r4, r4, r5
   226d4:	e5834078 	str	r4, [r3, #120]	; 0x78
   226d8:	e5932078 	ldr	r2, [r3, #120]	; 0x78
   226dc:	e2822010 	add	r2, r2, #16
   226e0:	e5832070 	str	r2, [r3, #112]	; 0x70
   226e4:	e3a02007 	mov	r2, #7
   226e8:	e5832060 	str	r2, [r3, #96]	; 0x60
   226ec:	e59f2060 	ldr	r2, [pc, #96]	; 22754 <md_memcpy+0x160>
   226f0:	e2522001 	subs	r2, r2, #1
   226f4:	0a00000d 	beq	22730 <md_memcpy+0x13c>
   226f8:	e5931060 	ldr	r1, [r3, #96]	; 0x60
   226fc:	e3110008 	tst	r1, #8
   22700:	1a00000e 	bne	22740 <md_memcpy+0x14c>
   22704:	e5931064 	ldr	r1, [r3, #100]	; 0x64
   22708:	e3110002 	tst	r1, #2
   2270c:	159f0044 	ldrne	r0, [pc, #68]	; 22758 <md_memcpy+0x164>
   22710:	1a000007 	bne	22734 <md_memcpy+0x140>
   22714:	e5931064 	ldr	r1, [r3, #100]	; 0x64
   22718:	e3110004 	tst	r1, #4
   2271c:	0afffff3 	beq	226f0 <md_memcpy+0xfc>
   22720:	e59f0034 	ldr	r0, [pc, #52]	; 2275c <md_memcpy+0x168>
   22724:	eb002d65 	bl	2dcc0 <printf>
   22728:	e3e00001 	mvn	r0, #1
   2272c:	e8bd8ef0 	pop	{r4, r5, r6, r7, r9, sl, fp, pc}
   22730:	e59f0028 	ldr	r0, [pc, #40]	; 22760 <md_memcpy+0x16c>
   22734:	eb002d61 	bl	2dcc0 <printf>
   22738:	e3e00000 	mvn	r0, #0
   2273c:	e8bd8ef0 	pop	{r4, r5, r6, r7, r9, sl, fp, pc}
   22740:	e3a00000 	mov	r0, #0
   22744:	e8bd8ef0 	pop	{r4, r5, r6, r7, r9, sl, fp, pc}
   22748:	0006673f 	.word	0x0006673f
   2274c:	9801a000 	.word	0x9801a000
   22750:	9800b000 	.word	0x9800b000
   22754:	000186a1 	.word	0x000186a1
   22758:	00066750 	.word	0x00066750
   2275c:	00066766 	.word	0x00066766
   22760:	0006677c 	.word	0x0006677c

00022764 <__asm_flush_aarch32_dcache_all>:
   22764:	e92d4ff0 	push	{r4, r5, r6, r7, r8, r9, sl, fp, lr}
   22768:	e3a00000 	mov	r0, #0
   2276c:	f57ff04f 	dsb	sy
   22770:	ee302f30 	mrc	15, 1, r2, cr0, cr0, {1}
   22774:	e1a03c22 	lsr	r3, r2, #24
   22778:	e2033007 	and	r3, r3, #7
   2277c:	e3530000 	cmp	r3, #0
   22780:	0a000023 	beq	22814 <finished>
   22784:	e3a00000 	mov	r0, #0

00022788 <loop_level>:
   22788:	e1a04080 	lsl	r4, r0, #1
   2278c:	e0844000 	add	r4, r4, r0
   22790:	e1a04432 	lsr	r4, r2, r4
   22794:	e2044007 	and	r4, r4, #7
   22798:	e3540002 	cmp	r4, #2
   2279c:	ba000015 	blt	227f8 <skip>
   227a0:	e1a04080 	lsl	r4, r0, #1
   227a4:	ee404f10 	mcr	15, 2, r4, cr0, cr0, {0}
   227a8:	f57ff06f 	isb	sy
   227ac:	ee305f10 	mrc	15, 1, r5, cr0, cr0, {0}
   227b0:	e2056007 	and	r6, r5, #7
   227b4:	e2866004 	add	r6, r6, #4
   227b8:	e59f7058 	ldr	r7, [pc, #88]	; 22818 <finished+0x4>
   227bc:	e00771a5 	and	r7, r7, r5, lsr #3
   227c0:	e16f8f17 	clz	r8, r7
   227c4:	e59f9050 	ldr	r9, [pc, #80]	; 2281c <finished+0x8>
   227c8:	e00996a5 	and	r9, r9, r5, lsr #13

000227cc <loop_set>:
   227cc:	e1a05007 	mov	r5, r7
   227d0:	e3a01000 	mov	r1, #0

000227d4 <loop_way>:
   227d4:	e1a0a815 	lsl	sl, r5, r8
   227d8:	e184100a 	orr	r1, r4, sl
   227dc:	e1a0a619 	lsl	sl, r9, r6
   227e0:	e181100a 	orr	r1, r1, sl
   227e4:	ee071f5e 	mcr	15, 0, r1, cr7, cr14, {2}
   227e8:	e2555001 	subs	r5, r5, #1
   227ec:	aafffff8 	bge	227d4 <loop_way>
   227f0:	e2599001 	subs	r9, r9, #1
   227f4:	aafffff4 	bge	227cc <loop_set>

000227f8 <skip>:
   227f8:	e2800001 	add	r0, r0, #1
   227fc:	e1530000 	cmp	r3, r0
   22800:	caffffe0 	bgt	22788 <loop_level>
   22804:	e3a00000 	mov	r0, #0
   22808:	ee400f10 	mcr	15, 2, r0, cr0, cr0, {0}
   2280c:	f57ff04f 	dsb	sy
   22810:	f57ff06f 	isb	sy

00022814 <finished>:
   22814:	e8bd8ff0 	pop	{r4, r5, r6, r7, r8, r9, sl, fp, pc}
   22818:	000003ff 	.word	0x000003ff
   2281c:	00007fff 	.word	0x00007fff

00022820 <get_bootparam>:
   22820:	e92d4030 	push	{r4, r5, lr}
   22824:	e59f01c4 	ldr	r0, [pc, #452]	; 229f0 <get_bootparam+0x1d0>
   22828:	e24dd01c 	sub	sp, sp, #28
   2282c:	e59f51c0 	ldr	r5, [pc, #448]	; 229f4 <get_bootparam+0x1d4>
   22830:	e28d1008 	add	r1, sp, #8
   22834:	e28d2010 	add	r2, sp, #16
   22838:	ebfffcf9 	bl	21c24 <factory_read>
   2283c:	e3500000 	cmp	r0, #0
   22840:	e59f11a8 	ldr	r1, [pc, #424]	; 229f0 <get_bootparam+0x1d0>
   22844:	0a000002 	beq	22854 <get_bootparam+0x34>
   22848:	e59f01a8 	ldr	r0, [pc, #424]	; 229f8 <get_bootparam+0x1d8>
   2284c:	eb002d1b 	bl	2dcc0 <printf>
   22850:	ea000056 	b	229b0 <get_bootparam+0x190>
   22854:	e59f01a0 	ldr	r0, [pc, #416]	; 229fc <get_bootparam+0x1dc>
   22858:	e28d400c 	add	r4, sp, #12
   2285c:	eb002d17 	bl	2dcc0 <printf>
   22860:	e28d3014 	add	r3, sp, #20
   22864:	e58d4000 	str	r4, [sp]
   22868:	e59d2010 	ldr	r2, [sp, #16]
   2286c:	e59d1008 	ldr	r1, [sp, #8]
   22870:	e59f0188 	ldr	r0, [pc, #392]	; 22a00 <get_bootparam+0x1e0>
   22874:	eb00d358 	bl	575dc <parse_h>
   22878:	e3500000 	cmp	r0, #0
   2287c:	059d3014 	ldreq	r3, [sp, #20]
   22880:	05c53000 	strbeq	r3, [r5]
   22884:	0a000005 	beq	228a0 <get_bootparam+0x80>
   22888:	e3a0203a 	mov	r2, #58	; 0x3a
   2288c:	e59f1170 	ldr	r1, [pc, #368]	; 22a04 <get_bootparam+0x1e4>
   22890:	e59f0170 	ldr	r0, [pc, #368]	; 22a08 <get_bootparam+0x1e8>
   22894:	eb002d09 	bl	2dcc0 <printf>
   22898:	e59f016c 	ldr	r0, [pc, #364]	; 22a0c <get_bootparam+0x1ec>
   2289c:	eb002d07 	bl	2dcc0 <printf>
   228a0:	e58d4000 	str	r4, [sp]
   228a4:	e28d3014 	add	r3, sp, #20
   228a8:	e59d2010 	ldr	r2, [sp, #16]
   228ac:	e59d1008 	ldr	r1, [sp, #8]
   228b0:	e59f0158 	ldr	r0, [pc, #344]	; 22a10 <get_bootparam+0x1f0>
   228b4:	eb00d348 	bl	575dc <parse_h>
   228b8:	e3500000 	cmp	r0, #0
   228bc:	059f3150 	ldreq	r3, [pc, #336]	; 22a14 <get_bootparam+0x1f4>
   228c0:	059d2014 	ldreq	r2, [sp, #20]
   228c4:	05832000 	streq	r2, [r3]
   228c8:	0a000005 	beq	228e4 <get_bootparam+0xc4>
   228cc:	e3a02042 	mov	r2, #66	; 0x42
   228d0:	e59f112c 	ldr	r1, [pc, #300]	; 22a04 <get_bootparam+0x1e4>
   228d4:	e59f012c 	ldr	r0, [pc, #300]	; 22a08 <get_bootparam+0x1e8>
   228d8:	eb002cf8 	bl	2dcc0 <printf>
   228dc:	e59f0134 	ldr	r0, [pc, #308]	; 22a18 <get_bootparam+0x1f8>
   228e0:	eb002cf6 	bl	2dcc0 <printf>
   228e4:	e58d4000 	str	r4, [sp]
   228e8:	e28d3014 	add	r3, sp, #20
   228ec:	e59d2010 	ldr	r2, [sp, #16]
   228f0:	e59d1008 	ldr	r1, [sp, #8]
   228f4:	e59f0120 	ldr	r0, [pc, #288]	; 22a1c <get_bootparam+0x1fc>
   228f8:	eb00d337 	bl	575dc <parse_h>
   228fc:	e3500000 	cmp	r0, #0
   22900:	059f3118 	ldreq	r3, [pc, #280]	; 22a20 <get_bootparam+0x200>
   22904:	059d2014 	ldreq	r2, [sp, #20]
   22908:	05832000 	streq	r2, [r3]
   2290c:	0a000005 	beq	22928 <get_bootparam+0x108>
   22910:	e3a0204a 	mov	r2, #74	; 0x4a
   22914:	e59f10e8 	ldr	r1, [pc, #232]	; 22a04 <get_bootparam+0x1e4>
   22918:	e59f00e8 	ldr	r0, [pc, #232]	; 22a08 <get_bootparam+0x1e8>
   2291c:	eb002ce7 	bl	2dcc0 <printf>
   22920:	e59f00fc 	ldr	r0, [pc, #252]	; 22a24 <get_bootparam+0x204>
   22924:	eb002ce5 	bl	2dcc0 <printf>
   22928:	e58d4000 	str	r4, [sp]
   2292c:	e28d3014 	add	r3, sp, #20
   22930:	e59d2010 	ldr	r2, [sp, #16]
   22934:	e59d1008 	ldr	r1, [sp, #8]
   22938:	e59f00e8 	ldr	r0, [pc, #232]	; 22a28 <get_bootparam+0x208>
   2293c:	eb00d326 	bl	575dc <parse_h>
   22940:	e3500000 	cmp	r0, #0
   22944:	059f30e0 	ldreq	r3, [pc, #224]	; 22a2c <get_bootparam+0x20c>
   22948:	059d2014 	ldreq	r2, [sp, #20]
   2294c:	05832000 	streq	r2, [r3]
   22950:	0a000005 	beq	2296c <get_bootparam+0x14c>
   22954:	e3a02053 	mov	r2, #83	; 0x53
   22958:	e59f10a4 	ldr	r1, [pc, #164]	; 22a04 <get_bootparam+0x1e4>
   2295c:	e59f00a4 	ldr	r0, [pc, #164]	; 22a08 <get_bootparam+0x1e8>
   22960:	eb002cd6 	bl	2dcc0 <printf>
   22964:	e59f00c4 	ldr	r0, [pc, #196]	; 22a30 <get_bootparam+0x210>
   22968:	eb002cd4 	bl	2dcc0 <printf>
   2296c:	e58d4000 	str	r4, [sp]
   22970:	e28d3014 	add	r3, sp, #20
   22974:	e59d2010 	ldr	r2, [sp, #16]
   22978:	e59d1008 	ldr	r1, [sp, #8]
   2297c:	e59f00b0 	ldr	r0, [pc, #176]	; 22a34 <get_bootparam+0x214>
   22980:	eb00d315 	bl	575dc <parse_h>
   22984:	e3500000 	cmp	r0, #0
   22988:	059f30a8 	ldreq	r3, [pc, #168]	; 22a38 <get_bootparam+0x218>
   2298c:	059d2014 	ldreq	r2, [sp, #20]
   22990:	05832000 	streq	r2, [r3]
   22994:	0a000005 	beq	229b0 <get_bootparam+0x190>
   22998:	e3a0205b 	mov	r2, #91	; 0x5b
   2299c:	e59f1060 	ldr	r1, [pc, #96]	; 22a04 <get_bootparam+0x1e4>
   229a0:	e59f0060 	ldr	r0, [pc, #96]	; 22a08 <get_bootparam+0x1e8>
   229a4:	eb002cc5 	bl	2dcc0 <printf>
   229a8:	e59f008c 	ldr	r0, [pc, #140]	; 22a3c <get_bootparam+0x21c>
   229ac:	eb002cc3 	bl	2dcc0 <printf>
   229b0:	e5d53000 	ldrb	r3, [r5]
   229b4:	e3530000 	cmp	r3, #0
   229b8:	0a00000a 	beq	229e8 <get_bootparam+0x1c8>
   229bc:	e59f3074 	ldr	r3, [pc, #116]	; 22a38 <get_bootparam+0x218>
   229c0:	e59f2058 	ldr	r2, [pc, #88]	; 22a20 <get_bootparam+0x200>
   229c4:	e59f1048 	ldr	r1, [pc, #72]	; 22a14 <get_bootparam+0x1f4>
   229c8:	e5933000 	ldr	r3, [r3]
   229cc:	e58d3000 	str	r3, [sp]
   229d0:	e59f3054 	ldr	r3, [pc, #84]	; 22a2c <get_bootparam+0x20c>
   229d4:	e5922000 	ldr	r2, [r2]
   229d8:	e5911000 	ldr	r1, [r1]
   229dc:	e5933000 	ldr	r3, [r3]
   229e0:	e59f0058 	ldr	r0, [pc, #88]	; 22a40 <get_bootparam+0x220>
   229e4:	eb002cb5 	bl	2dcc0 <printf>
   229e8:	e28dd01c 	add	sp, sp, #28
   229ec:	e8bd8030 	pop	{r4, r5, pc}
   229f0:	00066794 	.word	0x00066794
   229f4:	000736c4 	.word	0x000736c4
   229f8:	0006c7b2 	.word	0x0006c7b2
   229fc:	000667af 	.word	0x000667af
   22a00:	000667c5 	.word	0x000667c5
   22a04:	000667d6 	.word	0x000667d6
   22a08:	000667e2 	.word	0x000667e2
   22a0c:	000667ec 	.word	0x000667ec
   22a10:	00066809 	.word	0x00066809
   22a14:	000736c8 	.word	0x000736c8
   22a18:	0006681f 	.word	0x0006681f
   22a1c:	00066841 	.word	0x00066841
   22a20:	000736cc 	.word	0x000736cc
   22a24:	00066858 	.word	0x00066858
   22a28:	0006687b 	.word	0x0006687b
   22a2c:	000736d0 	.word	0x000736d0
   22a30:	00066891 	.word	0x00066891
   22a34:	000668b3 	.word	0x000668b3
   22a38:	000736d4 	.word	0x000736d4
   22a3c:	000668ca 	.word	0x000668ca
   22a40:	000668ed 	.word	0x000668ed

00022a44 <get_one_step_info>:
   22a44:	e92d4030 	push	{r4, r5, lr}
   22a48:	e59f00d8 	ldr	r0, [pc, #216]	; 22b28 <get_one_step_info+0xe4>
   22a4c:	e24dd014 	sub	sp, sp, #20
   22a50:	e1a0100d 	mov	r1, sp
   22a54:	e28d2008 	add	r2, sp, #8
   22a58:	ebfffc71 	bl	21c24 <factory_read>
   22a5c:	e2504000 	subs	r4, r0, #0
   22a60:	e59f10c0 	ldr	r1, [pc, #192]	; 22b28 <get_one_step_info+0xe4>
   22a64:	0a000003 	beq	22a78 <get_one_step_info+0x34>
   22a68:	e59f00bc 	ldr	r0, [pc, #188]	; 22b2c <get_one_step_info+0xe8>
   22a6c:	e3a04000 	mov	r4, #0
   22a70:	eb002c92 	bl	2dcc0 <printf>
   22a74:	ea000028 	b	22b1c <get_one_step_info+0xd8>
   22a78:	e59f00b0 	ldr	r0, [pc, #176]	; 22b30 <get_one_step_info+0xec>
   22a7c:	eb002c8f 	bl	2dcc0 <printf>
   22a80:	e3a03a1f 	mov	r3, #126976	; 0x1f000
   22a84:	e59f20a8 	ldr	r2, [pc, #168]	; 22b34 <get_one_step_info+0xf0>
   22a88:	e59d1000 	ldr	r1, [sp]
   22a8c:	e5832800 	str	r2, [r3, #2048]	; 0x800
   22a90:	e59d2008 	ldr	r2, [sp, #8]
   22a94:	e59f009c 	ldr	r0, [pc, #156]	; 22b38 <get_one_step_info+0xf4>
   22a98:	eb00daef 	bl	5965c <memcpy>
   22a9c:	e59d1008 	ldr	r1, [sp, #8]
   22aa0:	e3a00b7e 	mov	r0, #129024	; 0x1f800
   22aa4:	e2811004 	add	r1, r1, #4
   22aa8:	ebfffaed 	bl	21664 <flush_cache>
   22aac:	e28d200c 	add	r2, sp, #12
   22ab0:	e28d1004 	add	r1, sp, #4
   22ab4:	e59f0080 	ldr	r0, [pc, #128]	; 22b3c <get_one_step_info+0xf8>
   22ab8:	ebfffc59 	bl	21c24 <factory_read>
   22abc:	e3500000 	cmp	r0, #0
   22ac0:	0a000003 	beq	22ad4 <get_one_step_info+0x90>
   22ac4:	e59f1070 	ldr	r1, [pc, #112]	; 22b3c <get_one_step_info+0xf8>
   22ac8:	e59f005c 	ldr	r0, [pc, #92]	; 22b2c <get_one_step_info+0xe8>
   22acc:	eb002c7b 	bl	2dcc0 <printf>
   22ad0:	ea000011 	b	22b1c <get_one_step_info+0xd8>
   22ad4:	e59f5064 	ldr	r5, [pc, #100]	; 22b40 <get_one_step_info+0xfc>
   22ad8:	e3a02001 	mov	r2, #1
   22adc:	e59d1004 	ldr	r1, [sp, #4]
   22ae0:	e1a00005 	mov	r0, r5
   22ae4:	e59f4058 	ldr	r4, [pc, #88]	; 22b44 <get_one_step_info+0x100>
   22ae8:	eb00dadb 	bl	5965c <memcpy>
   22aec:	e59d1004 	ldr	r1, [sp, #4]
   22af0:	e3a02001 	mov	r2, #1
   22af4:	e1a00004 	mov	r0, r4
   22af8:	e0811002 	add	r1, r1, r2
   22afc:	eb00dad6 	bl	5965c <memcpy>
   22b00:	e5d53000 	ldrb	r3, [r5]
   22b04:	e3530000 	cmp	r3, #0
   22b08:	13a04001 	movne	r4, #1
   22b0c:	1a000002 	bne	22b1c <get_one_step_info+0xd8>
   22b10:	e5d44000 	ldrb	r4, [r4]
   22b14:	e2944000 	adds	r4, r4, #0
   22b18:	13a04001 	movne	r4, #1
   22b1c:	e1a00004 	mov	r0, r4
   22b20:	e28dd014 	add	sp, sp, #20
   22b24:	e8bd8030 	pop	{r4, r5, pc}
   22b28:	00066910 	.word	0x00066910
   22b2c:	0006c7b2 	.word	0x0006c7b2
   22b30:	000667af 	.word	0x000667af
   22b34:	ee0bdec0 	.word	0xee0bdec0
   22b38:	0001f804 	.word	0x0001f804
   22b3c:	0006692a 	.word	0x0006692a
   22b40:	0008b7bc 	.word	0x0008b7bc
   22b44:	0008b7bd 	.word	0x0008b7bd

00022b48 <IR_Parsing_key>:
   22b48:	e59f3040 	ldr	r3, [pc, #64]	; 22b90 <IR_Parsing_key+0x48>
   22b4c:	e59f1040 	ldr	r1, [pc, #64]	; 22b94 <IR_Parsing_key+0x4c>
   22b50:	e5932414 	ldr	r2, [r3, #1044]	; 0x414
   22b54:	e3a03000 	mov	r3, #0
   22b58:	e7e72852 	ubfx	r2, r2, #16, #8
   22b5c:	e791c183 	ldr	ip, [r1, r3, lsl #3]
   22b60:	e1a00183 	lsl	r0, r3, #3
   22b64:	e152000c 	cmp	r2, ip
   22b68:	1a000003 	bne	22b7c <IR_Parsing_key+0x34>
   22b6c:	e59f3020 	ldr	r3, [pc, #32]	; 22b94 <IR_Parsing_key+0x4c>
   22b70:	e0833000 	add	r3, r3, r0
   22b74:	e5930004 	ldr	r0, [r3, #4]
   22b78:	e12fff1e 	bx	lr
   22b7c:	e2833001 	add	r3, r3, #1
   22b80:	e3530009 	cmp	r3, #9
   22b84:	1afffff4 	bne	22b5c <IR_Parsing_key+0x14>
   22b88:	e3a00000 	mov	r0, #0
   22b8c:	e12fff1e 	bx	lr
   22b90:	98007000 	.word	0x98007000
   22b94:	00063b28 	.word	0x00063b28

00022b98 <IR_Protocol_Selection>:
   22b98:	e3a00000 	mov	r0, #0
   22b9c:	e12fff1e 	bx	lr

00022ba0 <IR_Protocol_Extension>:
   22ba0:	e3a00000 	mov	r0, #0
   22ba4:	e12fff1e 	bx	lr

00022ba8 <IR_Sampling_Frequency>:
   22ba8:	e3a00000 	mov	r0, #0
   22bac:	e12fff1e 	bx	lr

00022bb0 <IR_Control>:
   22bb0:	e3a00000 	mov	r0, #0
   22bb4:	e12fff1e 	bx	lr

00022bb8 <IR_Get_irdvf>:
   22bb8:	e59f3008 	ldr	r3, [pc, #8]	; 22bc8 <IR_Get_irdvf+0x10>
   22bbc:	e5930418 	ldr	r0, [r3, #1048]	; 0x418
   22bc0:	e2000001 	and	r0, r0, #1
   22bc4:	e12fff1e 	bx	lr
   22bc8:	98007000 	.word	0x98007000

00022bcc <IR_Set_irdvf>:
   22bcc:	e59f3008 	ldr	r3, [pc, #8]	; 22bdc <IR_Set_irdvf+0x10>
   22bd0:	e2000001 	and	r0, r0, #1
   22bd4:	e5830418 	str	r0, [r3, #1048]	; 0x418
   22bd8:	e12fff1e 	bx	lr
   22bdc:	98007000 	.word	0x98007000

00022be0 <IR_init>:
   22be0:	e59f3044 	ldr	r3, [pc, #68]	; 22c2c <IR_init+0x4c>
   22be4:	e5932088 	ldr	r2, [r3, #136]	; 0x88
   22be8:	e3822002 	orr	r2, r2, #2
   22bec:	e5832088 	str	r2, [r3, #136]	; 0x88
   22bf0:	e593208c 	ldr	r2, [r3, #140]	; 0x8c
   22bf4:	e3822080 	orr	r2, r2, #128	; 0x80
   22bf8:	e583208c 	str	r2, [r3, #140]	; 0x8c
   22bfc:	e5932310 	ldr	r2, [r3, #784]	; 0x310
   22c00:	e3822040 	orr	r2, r2, #64	; 0x40
   22c04:	e5832310 	str	r2, [r3, #784]	; 0x310
   22c08:	e5932410 	ldr	r2, [r3, #1040]	; 0x410
   22c0c:	e3822102 	orr	r2, r2, #-2147483648	; 0x80000000
   22c10:	e5832410 	str	r2, [r3, #1040]	; 0x410
   22c14:	e3a02000 	mov	r2, #0
   22c18:	e5832400 	str	r2, [r3, #1024]	; 0x400
   22c1c:	e5832404 	str	r2, [r3, #1028]	; 0x404
   22c20:	e5832408 	str	r2, [r3, #1032]	; 0x408
   22c24:	e5832410 	str	r2, [r3, #1040]	; 0x410
   22c28:	e12fff1e 	bx	lr
   22c2c:	98007000 	.word	0x98007000

00022c30 <alloc_mcp_descriptor>:
   22c30:	e92d4070 	push	{r4, r5, r6, lr}
   22c34:	e59f4054 	ldr	r4, [pc, #84]	; 22c90 <alloc_mcp_descriptor+0x60>
   22c38:	e59f3054 	ldr	r3, [pc, #84]	; 22c94 <alloc_mcp_descriptor+0x64>
   22c3c:	e59f1054 	ldr	r1, [pc, #84]	; 22c98 <alloc_mcp_descriptor+0x68>
   22c40:	e5942000 	ldr	r2, [r4]
   22c44:	e0823003 	add	r3, r2, r3
   22c48:	e3520000 	cmp	r2, #0
   22c4c:	11530001 	cmpne	r3, r1
   22c50:	8a000004 	bhi	22c68 <alloc_mcp_descriptor+0x38>
   22c54:	e3a00505 	mov	r0, #20971520	; 0x1400000
   22c58:	e3a02b02 	mov	r2, #2048	; 0x800
   22c5c:	e3a01000 	mov	r1, #0
   22c60:	e5840000 	str	r0, [r4]
   22c64:	eb00da5c 	bl	595dc <memset>
   22c68:	e5945000 	ldr	r5, [r4]
   22c6c:	e3a02038 	mov	r2, #56	; 0x38
   22c70:	e3a01000 	mov	r1, #0
   22c74:	e1a00005 	mov	r0, r5
   22c78:	eb00da57 	bl	595dc <memset>
   22c7c:	e5943000 	ldr	r3, [r4]
   22c80:	e1a00005 	mov	r0, r5
   22c84:	e2833c01 	add	r3, r3, #256	; 0x100
   22c88:	e5843000 	str	r3, [r4]
   22c8c:	e8bd8070 	pop	{r4, r5, r6, pc}
   22c90:	000735f0 	.word	0x000735f0
   22c94:	febff837 	.word	0xfebff837
   22c98:	febff7fe 	.word	0xfebff7fe

00022c9c <rtd_inl>:
   22c9c:	e280333a 	add	r3, r0, #-402653184	; 0xe8000000
   22ca0:	e3530701 	cmp	r3, #262144	; 0x40000
   22ca4:	3a000003 	bcc	22cb8 <rtd_inl+0x1c>
   22ca8:	e28034e7 	add	r3, r0, #-419430400	; 0xe7000000
   22cac:	e283360f 	add	r3, r3, #15728640	; 0xf00000
   22cb0:	e3530401 	cmp	r3, #16777216	; 0x1000000
   22cb4:	2a000000 	bcs	22cbc <rtd_inl+0x20>
   22cb8:	e2800102 	add	r0, r0, #-2147483648	; 0x80000000
   22cbc:	e5900000 	ldr	r0, [r0]
   22cc0:	e12fff1e 	bx	lr

00022cc4 <rtd_outl>:
   22cc4:	e280333a 	add	r3, r0, #-402653184	; 0xe8000000
   22cc8:	e3530701 	cmp	r3, #262144	; 0x40000
   22ccc:	3a000003 	bcc	22ce0 <rtd_outl+0x1c>
   22cd0:	e28034e7 	add	r3, r0, #-419430400	; 0xe7000000
   22cd4:	e283360f 	add	r3, r3, #15728640	; 0xf00000
   22cd8:	e3530401 	cmp	r3, #16777216	; 0x1000000
   22cdc:	2a000000 	bcs	22ce4 <rtd_outl+0x20>
   22ce0:	e2800102 	add	r0, r0, #-2147483648	; 0x80000000
   22ce4:	e5801000 	str	r1, [r0]
   22ce8:	e12fff1e 	bx	lr

00022cec <load_otp>:
   22cec:	e59f3024 	ldr	r3, [pc, #36]	; 22d18 <load_otp+0x2c>
   22cf0:	e3a02001 	mov	r2, #1
   22cf4:	e583219c 	str	r2, [r3, #412]	; 0x19c
   22cf8:	e3a02801 	mov	r2, #65536	; 0x10000
   22cfc:	e593019c 	ldr	r0, [r3, #412]	; 0x19c
   22d00:	e2100001 	ands	r0, r0, #1
   22d04:	012fff1e 	bxeq	lr
   22d08:	e2522001 	subs	r2, r2, #1
   22d0c:	1afffffa 	bne	22cfc <load_otp+0x10>
   22d10:	e3e00000 	mvn	r0, #0
   22d14:	e12fff1e 	bx	lr
   22d18:	98015000 	.word	0x98015000

00022d1c <do_mcp>:
   22d1c:	e2503000 	subs	r3, r0, #0
   22d20:	0a000031 	beq	22dec <do_mcp+0xd0>
   22d24:	e92d4010 	push	{r4, lr}
   22d28:	e59f40c4 	ldr	r4, [pc, #196]	; 22df4 <do_mcp+0xd8>
   22d2c:	e3a02001 	mov	r2, #1
   22d30:	e3a01038 	mov	r1, #56	; 0x38
   22d34:	e5842934 	str	r2, [r4, #2356]	; 0x934
   22d38:	e3a020fe 	mov	r2, #254	; 0xfe
   22d3c:	e5842908 	str	r2, [r4, #2312]	; 0x908
   22d40:	e3a02002 	mov	r2, #2
   22d44:	e5842900 	str	r2, [r4, #2304]	; 0x900
   22d48:	e2832070 	add	r2, r3, #112	; 0x70
   22d4c:	e584390c 	str	r3, [r4, #2316]	; 0x90c
   22d50:	e5842910 	str	r2, [r4, #2320]	; 0x910
   22d54:	e5843914 	str	r3, [r4, #2324]	; 0x914
   22d58:	e2833038 	add	r3, r3, #56	; 0x38
   22d5c:	e5843918 	str	r3, [r4, #2328]	; 0x918
   22d60:	ebfffa3f 	bl	21664 <flush_cache>
   22d64:	f57ff05f 	dmb	sy
   22d68:	e59f3088 	ldr	r3, [pc, #136]	; 22df8 <do_mcp+0xdc>
   22d6c:	e3a02000 	mov	r2, #0
   22d70:	e5832020 	str	r2, [r3, #32]
   22d74:	f57ff05f 	dmb	sy
   22d78:	f57ff04f 	dsb	sy
   22d7c:	e3a01003 	mov	r1, #3
   22d80:	e5841900 	str	r1, [r4, #2304]	; 0x900
   22d84:	f57ff05f 	dmb	sy
   22d88:	e5832020 	str	r2, [r3, #32]
   22d8c:	f57ff05f 	dmb	sy
   22d90:	e3a03502 	mov	r3, #8388608	; 0x800000
   22d94:	e5941904 	ldr	r1, [r4, #2308]	; 0x904
   22d98:	e59f2054 	ldr	r2, [pc, #84]	; 22df4 <do_mcp+0xd8>
   22d9c:	e3110006 	tst	r1, #6
   22da0:	1a000003 	bne	22db4 <do_mcp+0x98>
   22da4:	e2533001 	subs	r3, r3, #1
   22da8:	1afffff9 	bne	22d94 <do_mcp+0x78>
   22dac:	e3e00002 	mvn	r0, #2
   22db0:	e8bd8010 	pop	{r4, pc}
   22db4:	e5923904 	ldr	r3, [r2, #2308]	; 0x904
   22db8:	e3130002 	tst	r3, #2
   22dbc:	13a00000 	movne	r0, #0
   22dc0:	1a000003 	bne	22dd4 <do_mcp+0xb8>
   22dc4:	e5923904 	ldr	r3, [r2, #2308]	; 0x904
   22dc8:	e3130004 	tst	r3, #4
   22dcc:	13e00000 	mvnne	r0, #0
   22dd0:	03e00001 	mvneq	r0, #1
   22dd4:	e59f3018 	ldr	r3, [pc, #24]	; 22df4 <do_mcp+0xd8>
   22dd8:	e3a02002 	mov	r2, #2
   22ddc:	e5832900 	str	r2, [r3, #2304]	; 0x900
   22de0:	e3a02006 	mov	r2, #6
   22de4:	e5832904 	str	r2, [r3, #2308]	; 0x904
   22de8:	e8bd8010 	pop	{r4, pc}
   22dec:	e3e00000 	mvn	r0, #0
   22df0:	e12fff1e 	bx	lr
   22df4:	98015000 	.word	0x98015000
   22df8:	9801a000 	.word	0x9801a000

00022dfc <swap_endian>:
   22dfc:	e6bf0f30 	rev	r0, r0
   22e00:	e12fff1e 	bx	lr

00022e04 <reverse_rsa_signature>:
   22e04:	e92d42ff 	push	{r0, r1, r2, r3, r4, r5, r6, r7, r9, lr}
   22e08:	e1a04000 	mov	r4, r0
   22e0c:	e3a05000 	mov	r5, #0
   22e10:	e0850004 	add	r0, r5, r4
   22e14:	ebffffa0 	bl	22c9c <rtd_inl>
   22e18:	ebfffff7 	bl	22dfc <swap_endian>
   22e1c:	e78d0005 	str	r0, [sp, r5]
   22e20:	e2855004 	add	r5, r5, #4
   22e24:	e3550010 	cmp	r5, #16
   22e28:	1afffff8 	bne	22e10 <reverse_rsa_signature+0xc>
   22e2c:	e284501c 	add	r5, r4, #28
   22e30:	e2846018 	add	r6, r4, #24
   22e34:	e1a00005 	mov	r0, r5
   22e38:	e2847014 	add	r7, r4, #20
   22e3c:	ebffff96 	bl	22c9c <rtd_inl>
   22e40:	e2849010 	add	r9, r4, #16
   22e44:	ebffffec 	bl	22dfc <swap_endian>
   22e48:	e1a01000 	mov	r1, r0
   22e4c:	e1a00004 	mov	r0, r4
   22e50:	ebffff9b 	bl	22cc4 <rtd_outl>
   22e54:	e1a00006 	mov	r0, r6
   22e58:	ebffff8f 	bl	22c9c <rtd_inl>
   22e5c:	ebffffe6 	bl	22dfc <swap_endian>
   22e60:	e1a01000 	mov	r1, r0
   22e64:	e2840004 	add	r0, r4, #4
   22e68:	ebffff95 	bl	22cc4 <rtd_outl>
   22e6c:	e1a00007 	mov	r0, r7
   22e70:	ebffff89 	bl	22c9c <rtd_inl>
   22e74:	ebffffe0 	bl	22dfc <swap_endian>
   22e78:	e1a01000 	mov	r1, r0
   22e7c:	e2840008 	add	r0, r4, #8
   22e80:	ebffff8f 	bl	22cc4 <rtd_outl>
   22e84:	e1a00009 	mov	r0, r9
   22e88:	ebffff83 	bl	22c9c <rtd_inl>
   22e8c:	ebffffda 	bl	22dfc <swap_endian>
   22e90:	e1a01000 	mov	r1, r0
   22e94:	e284000c 	add	r0, r4, #12
   22e98:	ebffff89 	bl	22cc4 <rtd_outl>
   22e9c:	e59d100c 	ldr	r1, [sp, #12]
   22ea0:	e1a00009 	mov	r0, r9
   22ea4:	ebffff86 	bl	22cc4 <rtd_outl>
   22ea8:	e59d1008 	ldr	r1, [sp, #8]
   22eac:	e1a00007 	mov	r0, r7
   22eb0:	ebffff83 	bl	22cc4 <rtd_outl>
   22eb4:	e59d1004 	ldr	r1, [sp, #4]
   22eb8:	e1a00006 	mov	r0, r6
   22ebc:	ebffff80 	bl	22cc4 <rtd_outl>
   22ec0:	e1a00005 	mov	r0, r5
   22ec4:	e59d1000 	ldr	r1, [sp]
   22ec8:	ebffff7d 	bl	22cc4 <rtd_outl>
   22ecc:	e3a00000 	mov	r0, #0
   22ed0:	e28dd010 	add	sp, sp, #16
   22ed4:	e8bd82f0 	pop	{r4, r5, r6, r7, r9, pc}

00022ed8 <AES_CBC_decrypt>:
   22ed8:	e92d42f0 	push	{r4, r5, r6, r7, r9, lr}
   22edc:	e1a09000 	mov	r9, r0
   22ee0:	e1a06001 	mov	r6, r1
   22ee4:	e1a07002 	mov	r7, r2
   22ee8:	e1a05003 	mov	r5, r3
   22eec:	ebffff4f 	bl	22c30 <alloc_mcp_descriptor>
   22ef0:	e2504000 	subs	r4, r0, #0
   22ef4:	0a000017 	beq	22f58 <AES_CBC_decrypt+0x80>
   22ef8:	e3550000 	cmp	r5, #0
   22efc:	1a000005 	bne	22f18 <AES_CBC_decrypt+0x40>
   22f00:	ebffff79 	bl	22cec <load_otp>
   22f04:	e3500000 	cmp	r0, #0
   22f08:	03013045 	movweq	r3, #4165	; 0x1045
   22f0c:	05843000 	streq	r3, [r4]
   22f10:	0a00000a 	beq	22f40 <AES_CBC_decrypt+0x68>
   22f14:	ea000011 	b	22f60 <AES_CBC_decrypt+0x88>
   22f18:	e3a03045 	mov	r3, #69	; 0x45
   22f1c:	e5843000 	str	r3, [r4]
   22f20:	e5953000 	ldr	r3, [r5]
   22f24:	e5843004 	str	r3, [r4, #4]
   22f28:	e5953004 	ldr	r3, [r5, #4]
   22f2c:	e5843008 	str	r3, [r4, #8]
   22f30:	e5953008 	ldr	r3, [r5, #8]
   22f34:	e584300c 	str	r3, [r4, #12]
   22f38:	e595300c 	ldr	r3, [r5, #12]
   22f3c:	e5843010 	str	r3, [r4, #16]
   22f40:	e584902c 	str	r9, [r4, #44]	; 0x2c
   22f44:	e1a00004 	mov	r0, r4
   22f48:	e5847030 	str	r7, [r4, #48]	; 0x30
   22f4c:	e5846034 	str	r6, [r4, #52]	; 0x34
   22f50:	e8bd42f0 	pop	{r4, r5, r6, r7, r9, lr}
   22f54:	eaffff70 	b	22d1c <do_mcp>
   22f58:	e3e00000 	mvn	r0, #0
   22f5c:	e8bd82f0 	pop	{r4, r5, r6, r7, r9, pc}
   22f60:	e3e00001 	mvn	r0, #1
   22f64:	e8bd82f0 	pop	{r4, r5, r6, r7, r9, pc}

00022f68 <AES_CBC_encrypt>:
   22f68:	e92d42f0 	push	{r4, r5, r6, r7, r9, lr}
   22f6c:	e1a09000 	mov	r9, r0
   22f70:	e1a06001 	mov	r6, r1
   22f74:	e1a07002 	mov	r7, r2
   22f78:	e1a05003 	mov	r5, r3
   22f7c:	ebffff2b 	bl	22c30 <alloc_mcp_descriptor>
   22f80:	e2504000 	subs	r4, r0, #0
   22f84:	0a000017 	beq	22fe8 <AES_CBC_encrypt+0x80>
   22f88:	e3550000 	cmp	r5, #0
   22f8c:	1a000005 	bne	22fa8 <AES_CBC_encrypt+0x40>
   22f90:	ebffff55 	bl	22cec <load_otp>
   22f94:	e3500000 	cmp	r0, #0
   22f98:	03013065 	movweq	r3, #4197	; 0x1065
   22f9c:	05843000 	streq	r3, [r4]
   22fa0:	0a00000a 	beq	22fd0 <AES_CBC_encrypt+0x68>
   22fa4:	ea000011 	b	22ff0 <AES_CBC_encrypt+0x88>
   22fa8:	e3a03065 	mov	r3, #101	; 0x65
   22fac:	e5843000 	str	r3, [r4]
   22fb0:	e5953000 	ldr	r3, [r5]
   22fb4:	e5843004 	str	r3, [r4, #4]
   22fb8:	e5953004 	ldr	r3, [r5, #4]
   22fbc:	e5843008 	str	r3, [r4, #8]
   22fc0:	e5953008 	ldr	r3, [r5, #8]
   22fc4:	e584300c 	str	r3, [r4, #12]
   22fc8:	e595300c 	ldr	r3, [r5, #12]
   22fcc:	e5843010 	str	r3, [r4, #16]
   22fd0:	e584902c 	str	r9, [r4, #44]	; 0x2c
   22fd4:	e1a00004 	mov	r0, r4
   22fd8:	e5847030 	str	r7, [r4, #48]	; 0x30
   22fdc:	e5846034 	str	r6, [r4, #52]	; 0x34
   22fe0:	e8bd42f0 	pop	{r4, r5, r6, r7, r9, lr}
   22fe4:	eaffff4c 	b	22d1c <do_mcp>
   22fe8:	e3e00000 	mvn	r0, #0
   22fec:	e8bd82f0 	pop	{r4, r5, r6, r7, r9, pc}
   22ff0:	e3e00001 	mvn	r0, #1
   22ff4:	e8bd82f0 	pop	{r4, r5, r6, r7, r9, pc}

00022ff8 <AES_ECB_decrypt>:
   22ff8:	e92d42f0 	push	{r4, r5, r6, r7, r9, lr}
   22ffc:	e1a09000 	mov	r9, r0
   23000:	e1a06001 	mov	r6, r1
   23004:	e1a07002 	mov	r7, r2
   23008:	e1a05003 	mov	r5, r3
   2300c:	ebffff07 	bl	22c30 <alloc_mcp_descriptor>
   23010:	e2504000 	subs	r4, r0, #0
   23014:	0a000017 	beq	23078 <AES_ECB_decrypt+0x80>
   23018:	e3550000 	cmp	r5, #0
   2301c:	1a000005 	bne	23038 <AES_ECB_decrypt+0x40>
   23020:	ebffff31 	bl	22cec <load_otp>
   23024:	e3500000 	cmp	r0, #0
   23028:	03013005 	movweq	r3, #4101	; 0x1005
   2302c:	05843000 	streq	r3, [r4]
   23030:	0a00000a 	beq	23060 <AES_ECB_decrypt+0x68>
   23034:	ea000011 	b	23080 <AES_ECB_decrypt+0x88>
   23038:	e3a03005 	mov	r3, #5
   2303c:	e5843000 	str	r3, [r4]
   23040:	e5953000 	ldr	r3, [r5]
   23044:	e5843004 	str	r3, [r4, #4]
   23048:	e5953004 	ldr	r3, [r5, #4]
   2304c:	e5843008 	str	r3, [r4, #8]
   23050:	e5953008 	ldr	r3, [r5, #8]
   23054:	e584300c 	str	r3, [r4, #12]
   23058:	e595300c 	ldr	r3, [r5, #12]
   2305c:	e5843010 	str	r3, [r4, #16]
   23060:	e584902c 	str	r9, [r4, #44]	; 0x2c
   23064:	e1a00004 	mov	r0, r4
   23068:	e5847030 	str	r7, [r4, #48]	; 0x30
   2306c:	e5846034 	str	r6, [r4, #52]	; 0x34
   23070:	e8bd42f0 	pop	{r4, r5, r6, r7, r9, lr}
   23074:	eaffff28 	b	22d1c <do_mcp>
   23078:	e3e00000 	mvn	r0, #0
   2307c:	e8bd82f0 	pop	{r4, r5, r6, r7, r9, pc}
   23080:	e3e00001 	mvn	r0, #1
   23084:	e8bd82f0 	pop	{r4, r5, r6, r7, r9, pc}

00023088 <AES_ECB_encrypt>:
   23088:	e92d42f0 	push	{r4, r5, r6, r7, r9, lr}
   2308c:	e1a09000 	mov	r9, r0
   23090:	e1a05001 	mov	r5, r1
   23094:	e1a07002 	mov	r7, r2
   23098:	e1a06003 	mov	r6, r3
   2309c:	ebfffee3 	bl	22c30 <alloc_mcp_descriptor>
   230a0:	e2504000 	subs	r4, r0, #0
   230a4:	1a000006 	bne	230c4 <AES_ECB_encrypt+0x3c>
   230a8:	e3a030bd 	mov	r3, #189	; 0xbd
   230ac:	e59f210c 	ldr	r2, [pc, #268]	; 231c0 <AES_ECB_encrypt+0x138>
   230b0:	e59f110c 	ldr	r1, [pc, #268]	; 231c4 <AES_ECB_encrypt+0x13c>
   230b4:	e59f010c 	ldr	r0, [pc, #268]	; 231c8 <AES_ECB_encrypt+0x140>
   230b8:	eb002b00 	bl	2dcc0 <printf>
   230bc:	e3e00000 	mvn	r0, #0
   230c0:	e8bd82f0 	pop	{r4, r5, r6, r7, r9, pc}
   230c4:	e3560000 	cmp	r6, #0
   230c8:	1a00000b 	bne	230fc <AES_ECB_encrypt+0x74>
   230cc:	ebffff06 	bl	22cec <load_otp>
   230d0:	e3500000 	cmp	r0, #0
   230d4:	03013025 	movweq	r3, #4133	; 0x1025
   230d8:	05843000 	streq	r3, [r4]
   230dc:	0a000014 	beq	23134 <AES_ECB_encrypt+0xac>
   230e0:	e3a030c3 	mov	r3, #195	; 0xc3
   230e4:	e59f20d4 	ldr	r2, [pc, #212]	; 231c0 <AES_ECB_encrypt+0x138>
   230e8:	e59f10d4 	ldr	r1, [pc, #212]	; 231c4 <AES_ECB_encrypt+0x13c>
   230ec:	e59f00d4 	ldr	r0, [pc, #212]	; 231c8 <AES_ECB_encrypt+0x140>
   230f0:	eb002af2 	bl	2dcc0 <printf>
   230f4:	e3e00001 	mvn	r0, #1
   230f8:	e8bd82f0 	pop	{r4, r5, r6, r7, r9, pc}
   230fc:	e3a03025 	mov	r3, #37	; 0x25
   23100:	e5843000 	str	r3, [r4]
   23104:	e5960000 	ldr	r0, [r6]
   23108:	ebffff3b 	bl	22dfc <swap_endian>
   2310c:	e5840004 	str	r0, [r4, #4]
   23110:	e5960004 	ldr	r0, [r6, #4]
   23114:	ebffff38 	bl	22dfc <swap_endian>
   23118:	e5840008 	str	r0, [r4, #8]
   2311c:	e5960008 	ldr	r0, [r6, #8]
   23120:	ebffff35 	bl	22dfc <swap_endian>
   23124:	e584000c 	str	r0, [r4, #12]
   23128:	e596000c 	ldr	r0, [r6, #12]
   2312c:	ebffff32 	bl	22dfc <swap_endian>
   23130:	e5840010 	str	r0, [r4, #16]
   23134:	e1a02005 	mov	r2, r5
   23138:	e1a01009 	mov	r1, r9
   2313c:	e3a00612 	mov	r0, #18874368	; 0x1200000
   23140:	e3a06611 	mov	r6, #17825792	; 0x1100000
   23144:	eb00d944 	bl	5965c <memcpy>
   23148:	e1a01005 	mov	r1, r5
   2314c:	e3a00612 	mov	r0, #18874368	; 0x1200000
   23150:	ebfff943 	bl	21664 <flush_cache>
   23154:	e3a03612 	mov	r3, #18874368	; 0x1200000
   23158:	e5846030 	str	r6, [r4, #48]	; 0x30
   2315c:	e1a01005 	mov	r1, r5
   23160:	e584302c 	str	r3, [r4, #44]	; 0x2c
   23164:	e1a00006 	mov	r0, r6
   23168:	e5845034 	str	r5, [r4, #52]	; 0x34
   2316c:	ebfff93c 	bl	21664 <flush_cache>
   23170:	e1a00004 	mov	r0, r4
   23174:	ebfffee8 	bl	22d1c <do_mcp>
   23178:	e2504000 	subs	r4, r0, #0
   2317c:	1a00000d 	bne	231b8 <AES_ECB_encrypt+0x130>
   23180:	e1a01005 	mov	r1, r5
   23184:	e1a00006 	mov	r0, r6
   23188:	ebfff935 	bl	21664 <flush_cache>
   2318c:	e1a02005 	mov	r2, r5
   23190:	e1a01006 	mov	r1, r6
   23194:	e1a00007 	mov	r0, r7
   23198:	eb00d92f 	bl	5965c <memcpy>
   2319c:	e1a01005 	mov	r1, r5
   231a0:	e1a00007 	mov	r0, r7
   231a4:	ebfff92e 	bl	21664 <flush_cache>
   231a8:	e1a02005 	mov	r2, r5
   231ac:	e1a01004 	mov	r1, r4
   231b0:	e1a00006 	mov	r0, r6
   231b4:	eb00d908 	bl	595dc <memset>
   231b8:	e1a00004 	mov	r0, r4
   231bc:	e8bd82f0 	pop	{r4, r5, r6, r7, r9, pc}
   231c0:	00063b70 	.word	0x00063b70
   231c4:	00066948 	.word	0x00066948
   231c8:	0006694e 	.word	0x0006694e

000231cc <AES_hash_one>:
   231cc:	e92d4070 	push	{r4, r5, r6, lr}
   231d0:	e1a06000 	mov	r6, r0
   231d4:	e1a04001 	mov	r4, r1
   231d8:	e1a05002 	mov	r5, r2
   231dc:	ebfffe93 	bl	22c30 <alloc_mcp_descriptor>
   231e0:	e2503000 	subs	r3, r0, #0
   231e4:	0a00000e 	beq	23224 <AES_hash_one+0x58>
   231e8:	e3a02027 	mov	r2, #39	; 0x27
   231ec:	e5832000 	str	r2, [r3]
   231f0:	e59f2034 	ldr	r2, [pc, #52]	; 2322c <AES_hash_one+0x60>
   231f4:	e583201c 	str	r2, [r3, #28]
   231f8:	e59f2030 	ldr	r2, [pc, #48]	; 23230 <AES_hash_one+0x64>
   231fc:	e5832020 	str	r2, [r3, #32]
   23200:	e59f202c 	ldr	r2, [pc, #44]	; 23234 <AES_hash_one+0x68>
   23204:	e5832024 	str	r2, [r3, #36]	; 0x24
   23208:	e59f2028 	ldr	r2, [pc, #40]	; 23238 <AES_hash_one+0x6c>
   2320c:	e583602c 	str	r6, [r3, #44]	; 0x2c
   23210:	e5835030 	str	r5, [r3, #48]	; 0x30
   23214:	e5834034 	str	r4, [r3, #52]	; 0x34
   23218:	e5832028 	str	r2, [r3, #40]	; 0x28
   2321c:	e8bd4070 	pop	{r4, r5, r6, lr}
   23220:	eafffebd 	b	22d1c <do_mcp>
   23224:	e3e00000 	mvn	r0, #0
   23228:	e8bd8070 	pop	{r4, r5, r6, pc}
   2322c:	2dc2df39 	.word	0x2dc2df39
   23230:	420321d0 	.word	0x420321d0
   23234:	cef1fe23 	.word	0xcef1fe23
   23238:	74029d95 	.word	0x74029d95

0002323c <AES_hash>:
   2323c:	e3520000 	cmp	r2, #0
   23240:	13500000 	cmpne	r0, #0
   23244:	e92d42f0 	push	{r4, r5, r6, r7, r9, lr}
   23248:	e1a07000 	mov	r7, r0
   2324c:	e1a04002 	mov	r4, r2
   23250:	0a000044 	beq	23368 <AES_hash+0x12c>
   23254:	e3530000 	cmp	r3, #0
   23258:	13510000 	cmpne	r1, #0
   2325c:	e1a06001 	mov	r6, r1
   23260:	e1a09003 	mov	r9, r3
   23264:	0a00003f 	beq	23368 <AES_hash+0x12c>
   23268:	ebfffe70 	bl	22c30 <alloc_mcp_descriptor>
   2326c:	e2505000 	subs	r5, r0, #0
   23270:	0a00003c 	beq	23368 <AES_hash+0x12c>
   23274:	e3a03027 	mov	r3, #39	; 0x27
   23278:	e5853000 	str	r3, [r5]
   2327c:	e59f30f4 	ldr	r3, [pc, #244]	; 23378 <AES_hash+0x13c>
   23280:	e585301c 	str	r3, [r5, #28]
   23284:	e59f30f0 	ldr	r3, [pc, #240]	; 2337c <AES_hash+0x140>
   23288:	e5853020 	str	r3, [r5, #32]
   2328c:	e59f30ec 	ldr	r3, [pc, #236]	; 23380 <AES_hash+0x144>
   23290:	e5853024 	str	r3, [r5, #36]	; 0x24
   23294:	e59f30e8 	ldr	r3, [pc, #232]	; 23384 <AES_hash+0x148>
   23298:	e5853028 	str	r3, [r5, #40]	; 0x28
   2329c:	e5854030 	str	r4, [r5, #48]	; 0x30
   232a0:	e1560009 	cmp	r6, r9
   232a4:	95856034 	strls	r6, [r5, #52]	; 0x34
   232a8:	85859034 	strhi	r9, [r5, #52]	; 0x34
   232ac:	e1a00005 	mov	r0, r5
   232b0:	e585702c 	str	r7, [r5, #44]	; 0x2c
   232b4:	e0696006 	rsb	r6, r9, r6
   232b8:	ebfffe97 	bl	22d1c <do_mcp>
   232bc:	e3500000 	cmp	r0, #0
   232c0:	1a000027 	bne	23364 <AES_hash+0x128>
   232c4:	e3560000 	cmp	r6, #0
   232c8:	0a000028 	beq	23370 <AES_hash+0x134>
   232cc:	e5d43001 	ldrb	r3, [r4, #1]
   232d0:	e5d42000 	ldrb	r2, [r4]
   232d4:	e1a03803 	lsl	r3, r3, #16
   232d8:	e1833c02 	orr	r3, r3, r2, lsl #24
   232dc:	e5d42003 	ldrb	r2, [r4, #3]
   232e0:	e1833002 	orr	r3, r3, r2
   232e4:	e5d42002 	ldrb	r2, [r4, #2]
   232e8:	e1833402 	orr	r3, r3, r2, lsl #8
   232ec:	e585301c 	str	r3, [r5, #28]
   232f0:	e5d43005 	ldrb	r3, [r4, #5]
   232f4:	e5d42004 	ldrb	r2, [r4, #4]
   232f8:	e1a03803 	lsl	r3, r3, #16
   232fc:	e1833c02 	orr	r3, r3, r2, lsl #24
   23300:	e5d42007 	ldrb	r2, [r4, #7]
   23304:	e1833002 	orr	r3, r3, r2
   23308:	e5d42006 	ldrb	r2, [r4, #6]
   2330c:	e1833402 	orr	r3, r3, r2, lsl #8
   23310:	e5853020 	str	r3, [r5, #32]
   23314:	e5d42009 	ldrb	r2, [r4, #9]
   23318:	e5d41008 	ldrb	r1, [r4, #8]
   2331c:	e1a03802 	lsl	r3, r2, #16
   23320:	e1833c01 	orr	r3, r3, r1, lsl #24
   23324:	e1832002 	orr	r2, r3, r2
   23328:	e5d4300a 	ldrb	r3, [r4, #10]
   2332c:	e1822403 	orr	r2, r2, r3, lsl #8
   23330:	e5852024 	str	r2, [r5, #36]	; 0x24
   23334:	e5d4300d 	ldrb	r3, [r4, #13]
   23338:	e5d4200c 	ldrb	r2, [r4, #12]
   2333c:	e1a03803 	lsl	r3, r3, #16
   23340:	e1833c02 	orr	r3, r3, r2, lsl #24
   23344:	e5d4200f 	ldrb	r2, [r4, #15]
   23348:	e1833002 	orr	r3, r3, r2
   2334c:	e5d4200e 	ldrb	r2, [r4, #14]
   23350:	e1833402 	orr	r3, r3, r2, lsl #8
   23354:	e5853028 	str	r3, [r5, #40]	; 0x28
   23358:	e5953034 	ldr	r3, [r5, #52]	; 0x34
   2335c:	e0877003 	add	r7, r7, r3
   23360:	eaffffce 	b	232a0 <AES_hash+0x64>
   23364:	e8bd82f0 	pop	{r4, r5, r6, r7, r9, pc}
   23368:	e3e00000 	mvn	r0, #0
   2336c:	e8bd82f0 	pop	{r4, r5, r6, r7, r9, pc}
   23370:	e1a00006 	mov	r0, r6
   23374:	e8bd82f0 	pop	{r4, r5, r6, r7, r9, pc}
   23378:	2dc2df39 	.word	0x2dc2df39
   2337c:	420321d0 	.word	0x420321d0
   23380:	cef1fe23 	.word	0xcef1fe23
   23384:	74029d95 	.word	0x74029d95

00023388 <SHA1_hash>:
   23388:	e3520000 	cmp	r2, #0
   2338c:	13500000 	cmpne	r0, #0
   23390:	0a000028 	beq	23438 <SHA1_hash+0xb0>
   23394:	e92d42f0 	push	{r4, r5, r6, r7, r9, lr}
   23398:	e1a07002 	mov	r7, r2
   2339c:	e1a06000 	mov	r6, r0
   233a0:	e1a04003 	mov	r4, r3
   233a4:	e1a05001 	mov	r5, r1
   233a8:	ebfffe20 	bl	22c30 <alloc_mcp_descriptor>
   233ac:	e3500000 	cmp	r0, #0
   233b0:	0a00001e 	beq	23430 <SHA1_hash+0xa8>
   233b4:	e3540000 	cmp	r4, #0
   233b8:	e3a03004 	mov	r3, #4
   233bc:	e5803000 	str	r3, [r0]
   233c0:	1a00000b 	bne	233f4 <SHA1_hash+0x6c>
   233c4:	e24333e6 	sub	r3, r3, #-1744830461	; 0x98000003
   233c8:	e24338ba 	sub	r3, r3, #12189696	; 0xba0000
   233cc:	e2433cdd 	sub	r3, r3, #56576	; 0xdd00
   233d0:	e5803004 	str	r3, [r0, #4]
   233d4:	e59f3064 	ldr	r3, [pc, #100]	; 23440 <SHA1_hash+0xb8>
   233d8:	e5803008 	str	r3, [r0, #8]
   233dc:	e59f3060 	ldr	r3, [pc, #96]	; 23444 <SHA1_hash+0xbc>
   233e0:	e580300c 	str	r3, [r0, #12]
   233e4:	e59f305c 	ldr	r3, [pc, #92]	; 23448 <SHA1_hash+0xc0>
   233e8:	e5803010 	str	r3, [r0, #16]
   233ec:	e59f3058 	ldr	r3, [pc, #88]	; 2344c <SHA1_hash+0xc4>
   233f0:	ea000008 	b	23418 <SHA1_hash+0x90>
   233f4:	e5943000 	ldr	r3, [r4]
   233f8:	e5803004 	str	r3, [r0, #4]
   233fc:	e5943004 	ldr	r3, [r4, #4]
   23400:	e5803008 	str	r3, [r0, #8]
   23404:	e5943008 	ldr	r3, [r4, #8]
   23408:	e580300c 	str	r3, [r0, #12]
   2340c:	e594300c 	ldr	r3, [r4, #12]
   23410:	e5803010 	str	r3, [r0, #16]
   23414:	e5943010 	ldr	r3, [r4, #16]
   23418:	e580602c 	str	r6, [r0, #44]	; 0x2c
   2341c:	e5807030 	str	r7, [r0, #48]	; 0x30
   23420:	e5805034 	str	r5, [r0, #52]	; 0x34
   23424:	e5803014 	str	r3, [r0, #20]
   23428:	e8bd42f0 	pop	{r4, r5, r6, r7, r9, lr}
   2342c:	eafffe3a 	b	22d1c <do_mcp>
   23430:	e3e00000 	mvn	r0, #0
   23434:	e8bd82f0 	pop	{r4, r5, r6, r7, r9, pc}
   23438:	e3e00000 	mvn	r0, #0
   2343c:	e12fff1e 	bx	lr
   23440:	efcdab89 	.word	0xefcdab89
   23444:	98badcfe 	.word	0x98badcfe
   23448:	10325476 	.word	0x10325476
   2344c:	c3d2e1f0 	.word	0xc3d2e1f0

00023450 <SHA256_hash>:
   23450:	e3520000 	cmp	r2, #0
   23454:	13500000 	cmpne	r0, #0
   23458:	0a00002d 	beq	23514 <SHA256_hash+0xc4>
   2345c:	e92d42f0 	push	{r4, r5, r6, r7, r9, lr}
   23460:	e1a07002 	mov	r7, r2
   23464:	e1a06000 	mov	r6, r0
   23468:	e1a04003 	mov	r4, r3
   2346c:	e1a05001 	mov	r5, r1
   23470:	ebfffdee 	bl	22c30 <alloc_mcp_descriptor>
   23474:	e3500000 	cmp	r0, #0
   23478:	0a000027 	beq	2351c <SHA256_hash+0xcc>
   2347c:	e3540000 	cmp	r4, #0
   23480:	e3a0300b 	mov	r3, #11
   23484:	e5803000 	str	r3, [r0]
   23488:	1a00000c 	bne	234c0 <SHA256_hash+0x70>
   2348c:	e59f3090 	ldr	r3, [pc, #144]	; 23524 <SHA256_hash+0xd4>
   23490:	e59f1090 	ldr	r1, [pc, #144]	; 23528 <SHA256_hash+0xd8>
   23494:	e59f2090 	ldr	r2, [pc, #144]	; 2352c <SHA256_hash+0xdc>
   23498:	e59fc090 	ldr	ip, [pc, #144]	; 23530 <SHA256_hash+0xe0>
   2349c:	e980100e 	stmib	r0, {r1, r2, r3, ip}
   234a0:	e59f308c 	ldr	r3, [pc, #140]	; 23534 <SHA256_hash+0xe4>
   234a4:	e5803014 	str	r3, [r0, #20]
   234a8:	e59f3088 	ldr	r3, [pc, #136]	; 23538 <SHA256_hash+0xe8>
   234ac:	e5803018 	str	r3, [r0, #24]
   234b0:	e59f3084 	ldr	r3, [pc, #132]	; 2353c <SHA256_hash+0xec>
   234b4:	e580301c 	str	r3, [r0, #28]
   234b8:	e59f3080 	ldr	r3, [pc, #128]	; 23540 <SHA256_hash+0xf0>
   234bc:	ea00000e 	b	234fc <SHA256_hash+0xac>
   234c0:	e5943000 	ldr	r3, [r4]
   234c4:	e5803004 	str	r3, [r0, #4]
   234c8:	e5943004 	ldr	r3, [r4, #4]
   234cc:	e5803008 	str	r3, [r0, #8]
   234d0:	e5943008 	ldr	r3, [r4, #8]
   234d4:	e580300c 	str	r3, [r0, #12]
   234d8:	e594300c 	ldr	r3, [r4, #12]
   234dc:	e5803010 	str	r3, [r0, #16]
   234e0:	e5943010 	ldr	r3, [r4, #16]
   234e4:	e5803014 	str	r3, [r0, #20]
   234e8:	e5943014 	ldr	r3, [r4, #20]
   234ec:	e5803018 	str	r3, [r0, #24]
   234f0:	e5943018 	ldr	r3, [r4, #24]
   234f4:	e580301c 	str	r3, [r0, #28]
   234f8:	e594301c 	ldr	r3, [r4, #28]
   234fc:	e580602c 	str	r6, [r0, #44]	; 0x2c
   23500:	e5807030 	str	r7, [r0, #48]	; 0x30
   23504:	e5805034 	str	r5, [r0, #52]	; 0x34
   23508:	e5803020 	str	r3, [r0, #32]
   2350c:	e8bd42f0 	pop	{r4, r5, r6, r7, r9, lr}
   23510:	eafffe01 	b	22d1c <do_mcp>
   23514:	e3a00093 	mov	r0, #147	; 0x93
   23518:	e12fff1e 	bx	lr
   2351c:	e3a00094 	mov	r0, #148	; 0x94
   23520:	e8bd82f0 	pop	{r4, r5, r6, r7, r9, pc}
   23524:	3c6ef372 	.word	0x3c6ef372
   23528:	6a09e667 	.word	0x6a09e667
   2352c:	bb67ae85 	.word	0xbb67ae85
   23530:	a54ff53a 	.word	0xa54ff53a
   23534:	510e527f 	.word	0x510e527f
   23538:	9b05688c 	.word	0x9b05688c
   2353c:	1f83d9ab 	.word	0x1f83d9ab
   23540:	5be0cd19 	.word	0x5be0cd19

00023544 <rtk_hexdump>:
   23544:	e92d4ef0 	push	{r4, r5, r6, r7, r9, sl, fp, lr}
   23548:	e1a0a002 	mov	sl, r2
   2354c:	e1a04000 	mov	r4, r0
   23550:	e28a900f 	add	r9, sl, #15
   23554:	e59f007c 	ldr	r0, [pc, #124]	; 235d8 <rtk_hexdump+0x94>
   23558:	e1a05001 	mov	r5, r1
   2355c:	eb0029d7 	bl	2dcc0 <printf>
   23560:	e1a01004 	mov	r1, r4
   23564:	e3a04000 	mov	r4, #0
   23568:	e1a09229 	lsr	r9, r9, #4
   2356c:	e1a07004 	mov	r7, r4
   23570:	e1a02005 	mov	r2, r5
   23574:	e59f0060 	ldr	r0, [pc, #96]	; 235dc <rtk_hexdump+0x98>
   23578:	eb0029d0 	bl	2dcc0 <printf>
   2357c:	e154000a 	cmp	r4, sl
   23580:	31570009 	cmpcc	r7, r9
   23584:	2a000012 	bcs	235d4 <rtk_hexdump+0x90>
   23588:	e1a06005 	mov	r6, r5
   2358c:	e065b004 	rsb	fp, r5, r4
   23590:	e1a01207 	lsl	r1, r7, #4
   23594:	e59f0044 	ldr	r0, [pc, #68]	; 235e0 <rtk_hexdump+0x9c>
   23598:	eb0029c8 	bl	2dcc0 <printf>
   2359c:	e086400b 	add	r4, r6, fp
   235a0:	e0653006 	rsb	r3, r5, r6
   235a4:	e353000f 	cmp	r3, #15
   235a8:	9154000a 	cmpls	r4, sl
   235ac:	2a000003 	bcs	235c0 <rtk_hexdump+0x7c>
   235b0:	e4d61001 	ldrb	r1, [r6], #1
   235b4:	e59f0028 	ldr	r0, [pc, #40]	; 235e4 <rtk_hexdump+0xa0>
   235b8:	eb0029c0 	bl	2dcc0 <printf>
   235bc:	eafffff6 	b	2359c <rtk_hexdump+0x58>
   235c0:	e59f0020 	ldr	r0, [pc, #32]	; 235e8 <rtk_hexdump+0xa4>
   235c4:	e2877001 	add	r7, r7, #1
   235c8:	eb0029bc 	bl	2dcc0 <printf>
   235cc:	e1a05006 	mov	r5, r6
   235d0:	eaffffe9 	b	2357c <rtk_hexdump+0x38>
   235d4:	e8bd8ef0 	pop	{r4, r5, r6, r7, r9, sl, fp, pc}
   235d8:	0006695c 	.word	0x0006695c
   235dc:	00066994 	.word	0x00066994
   235e0:	000669a5 	.word	0x000669a5
   235e4:	000669ac 	.word	0x000669ac
   235e8:	0006b8df 	.word	0x0006b8df

000235ec <reverse_signature>:
   235ec:	e2402001 	sub	r2, r0, #1
   235f0:	e2803c01 	add	r3, r0, #256	; 0x100
   235f4:	e2800080 	add	r0, r0, #128	; 0x80
   235f8:	e573c001 	ldrb	ip, [r3, #-1]!
   235fc:	e5f21001 	ldrb	r1, [r2, #1]!
   23600:	e1530000 	cmp	r3, r0
   23604:	e5c2c000 	strb	ip, [r2]
   23608:	e5c31000 	strb	r1, [r3]
   2360c:	1afffff9 	bne	235f8 <reverse_signature+0xc>
   23610:	e12fff1e 	bx	lr

00023614 <set_memory>:
   23614:	e3a03000 	mov	r3, #0
   23618:	e1530002 	cmp	r3, r2
   2361c:	17c01003 	strbne	r1, [r0, r3]
   23620:	12833001 	addne	r3, r3, #1
   23624:	1afffffb 	bne	23618 <set_memory+0x4>
   23628:	e12fff1e 	bx	lr

0002362c <copy_memory>:
   2362c:	e1813002 	orr	r3, r1, r2
   23630:	e24dd008 	sub	sp, sp, #8
   23634:	e1803003 	orr	r3, r0, r3
   23638:	e2133003 	ands	r3, r3, #3
   2363c:	1a00000a 	bne	2366c <copy_memory+0x40>
   23640:	e58d3004 	str	r3, [sp, #4]
   23644:	e59d3004 	ldr	r3, [sp, #4]
   23648:	e1530002 	cmp	r3, r2
   2364c:	2a000013 	bcs	236a0 <copy_memory+0x74>
   23650:	e59d3004 	ldr	r3, [sp, #4]
   23654:	e59dc004 	ldr	ip, [sp, #4]
   23658:	e791c00c 	ldr	ip, [r1, ip]
   2365c:	e780c003 	str	ip, [r0, r3]
   23660:	e59d3004 	ldr	r3, [sp, #4]
   23664:	e2833004 	add	r3, r3, #4
   23668:	eafffff4 	b	23640 <copy_memory+0x14>
   2366c:	e3a03000 	mov	r3, #0
   23670:	e58d3004 	str	r3, [sp, #4]
   23674:	e59d3004 	ldr	r3, [sp, #4]
   23678:	e1530002 	cmp	r3, r2
   2367c:	2a000007 	bcs	236a0 <copy_memory+0x74>
   23680:	e59dc004 	ldr	ip, [sp, #4]
   23684:	e59d3004 	ldr	r3, [sp, #4]
   23688:	e7d13003 	ldrb	r3, [r1, r3]
   2368c:	e6ef3073 	uxtb	r3, r3
   23690:	e7c0300c 	strb	r3, [r0, ip]
   23694:	e59d3004 	ldr	r3, [sp, #4]
   23698:	e2833001 	add	r3, r3, #1
   2369c:	eafffff3 	b	23670 <copy_memory+0x44>
   236a0:	e28dd008 	add	sp, sp, #8
   236a4:	e12fff1e 	bx	lr

000236a8 <do_RSA>:
   236a8:	e92d4070 	push	{r4, r5, r6, lr}
   236ac:	e1a05000 	mov	r5, r0
   236b0:	e1a04002 	mov	r4, r2
   236b4:	e24ddc01 	sub	sp, sp, #256	; 0x100
   236b8:	e1a00001 	mov	r0, r1
   236bc:	f57ff04f 	dsb	sy
   236c0:	f57ff05f 	dmb	sy
   236c4:	e59f3124 	ldr	r3, [pc, #292]	; 237f0 <do_RSA+0x148>
   236c8:	e3a02000 	mov	r2, #0
   236cc:	e5832020 	str	r2, [r3, #32]
   236d0:	f57ff05f 	dmb	sy
   236d4:	e2833a32 	add	r3, r3, #204800	; 0x32000
   236d8:	e1510002 	cmp	r1, r2
   236dc:	e3a0c002 	mov	ip, #2
   236e0:	e583cf08 	str	ip, [r3, #3848]	; 0xf08
   236e4:	e5832f80 	str	r2, [r3, #3968]	; 0xf80
   236e8:	1a000003 	bne	236fc <do_RSA+0x54>
   236ec:	e3a02040 	mov	r2, #64	; 0x40
   236f0:	e59f10fc 	ldr	r1, [pc, #252]	; 237f4 <do_RSA+0x14c>
   236f4:	eb005c04 	bl	3a70c <OTP_Get_Word>
   236f8:	ea000002 	b	23708 <do_RSA+0x60>
   236fc:	e3a02c01 	mov	r2, #256	; 0x100
   23700:	e59f00ec 	ldr	r0, [pc, #236]	; 237f4 <do_RSA+0x14c>
   23704:	ebffffc8 	bl	2362c <copy_memory>
   23708:	e3a01c01 	mov	r1, #256	; 0x100
   2370c:	e59f00e0 	ldr	r0, [pc, #224]	; 237f4 <do_RSA+0x14c>
   23710:	ebfff7d3 	bl	21664 <flush_cache>
   23714:	e3a02c01 	mov	r2, #256	; 0x100
   23718:	e3a01000 	mov	r1, #0
   2371c:	e1a0000d 	mov	r0, sp
   23720:	ebffffbb 	bl	23614 <set_memory>
   23724:	e59f30cc 	ldr	r3, [pc, #204]	; 237f8 <do_RSA+0x150>
   23728:	e3a02c01 	mov	r2, #256	; 0x100
   2372c:	e1a0100d 	mov	r1, sp
   23730:	e59f00c4 	ldr	r0, [pc, #196]	; 237fc <do_RSA+0x154>
   23734:	e30063ea 	movw	r6, #1002	; 0x3ea
   23738:	e58d3000 	str	r3, [sp]
   2373c:	ebffffba 	bl	2362c <copy_memory>
   23740:	e1a01005 	mov	r1, r5
   23744:	e3a02c01 	mov	r2, #256	; 0x100
   23748:	e59f00b0 	ldr	r0, [pc, #176]	; 23800 <do_RSA+0x158>
   2374c:	ebffffb6 	bl	2362c <copy_memory>
   23750:	e3a02c01 	mov	r2, #256	; 0x100
   23754:	e0851002 	add	r1, r5, r2
   23758:	e59f00a4 	ldr	r0, [pc, #164]	; 23804 <do_RSA+0x15c>
   2375c:	ebffffb2 	bl	2362c <copy_memory>
   23760:	e5950200 	ldr	r0, [r5, #512]	; 0x200
   23764:	ebfffda4 	bl	22dfc <swap_endian>
   23768:	e59f3098 	ldr	r3, [pc, #152]	; 23808 <do_RSA+0x160>
   2376c:	e1a05003 	mov	r5, r3
   23770:	e5830f84 	str	r0, [r3, #3972]	; 0xf84
   23774:	e5932f88 	ldr	r2, [r3, #3976]	; 0xf88
   23778:	e3822102 	orr	r2, r2, #-2147483648	; 0x80000000
   2377c:	e5832f88 	str	r2, [r3, #3976]	; 0xf88
   23780:	e5953f0c 	ldr	r3, [r5, #3852]	; 0xf0c
   23784:	e3530023 	cmp	r3, #35	; 0x23
   23788:	0a000008 	beq	237b0 <do_RSA+0x108>
   2378c:	e2566001 	subs	r6, r6, #1
   23790:	1a000003 	bne	237a4 <do_RSA+0xfc>
   23794:	e59f0070 	ldr	r0, [pc, #112]	; 2380c <do_RSA+0x164>
   23798:	eb002948 	bl	2dcc0 <printf>
   2379c:	e3a00001 	mov	r0, #1
   237a0:	ea000010 	b	237e8 <do_RSA+0x140>
   237a4:	e3a00001 	mov	r0, #1
   237a8:	eb00d9d0 	bl	59ef0 <mdelay>
   237ac:	eafffff3 	b	23780 <do_RSA+0xd8>
   237b0:	e3a02020 	mov	r2, #32
   237b4:	e59f1048 	ldr	r1, [pc, #72]	; 23804 <do_RSA+0x15c>
   237b8:	e2845020 	add	r5, r4, #32
   237bc:	e1a00004 	mov	r0, r4
   237c0:	ebffff99 	bl	2362c <copy_memory>
   237c4:	e1a01005 	mov	r1, r5
   237c8:	e1a00004 	mov	r0, r4
   237cc:	ebfff7a4 	bl	21664 <flush_cache>
   237d0:	e1a00004 	mov	r0, r4
   237d4:	ebfffd8a 	bl	22e04 <reverse_rsa_signature>
   237d8:	e1a00004 	mov	r0, r4
   237dc:	e1a01005 	mov	r1, r5
   237e0:	ebfff79f 	bl	21664 <flush_cache>
   237e4:	e1a00004 	mov	r0, r4
   237e8:	e28ddc01 	add	sp, sp, #256	; 0x100
   237ec:	e8bd8070 	pop	{r4, r5, r6, pc}
   237f0:	9801a000 	.word	0x9801a000
   237f4:	9804cc00 	.word	0x9804cc00
   237f8:	00010001 	.word	0x00010001
   237fc:	9804cd80 	.word	0x9804cd80
   23800:	9804c780 	.word	0x9804c780
   23804:	9804c900 	.word	0x9804c900
   23808:	9804c000 	.word	0x9804c000
   2380c:	000669b2 	.word	0x000669b2

00023810 <Verify_SHA256_hash>:
   23810:	e92d40f0 	push	{r4, r5, r6, r7, lr}
   23814:	e1a06000 	mov	r6, r0
   23818:	e1a07001 	mov	r7, r1
   2381c:	e24ddf41 	sub	sp, sp, #260	; 0x104
   23820:	e59f10d0 	ldr	r1, [pc, #208]	; 238f8 <Verify_SHA256_hash+0xe8>
   23824:	e1a04002 	mov	r4, r2
   23828:	e1a0000d 	mov	r0, sp
   2382c:	e3a02c01 	mov	r2, #256	; 0x100
   23830:	e1a05003 	mov	r5, r3
   23834:	eb00d788 	bl	5965c <memcpy>
   23838:	e59f20bc 	ldr	r2, [pc, #188]	; 238fc <Verify_SHA256_hash+0xec>
   2383c:	e3a03000 	mov	r3, #0
   23840:	e1a01007 	mov	r1, r7
   23844:	e1a00006 	mov	r0, r6
   23848:	e5823000 	str	r3, [r2]
   2384c:	e3a02302 	mov	r2, #134217728	; 0x8000000
   23850:	ebfffefe 	bl	23450 <SHA256_hash>
   23854:	e2502000 	subs	r2, r0, #0
   23858:	0a000004 	beq	23870 <Verify_SHA256_hash+0x60>
   2385c:	e59f109c 	ldr	r1, [pc, #156]	; 23900 <Verify_SHA256_hash+0xf0>
   23860:	e59f009c 	ldr	r0, [pc, #156]	; 23904 <Verify_SHA256_hash+0xf4>
   23864:	eb002915 	bl	2dcc0 <printf>
   23868:	e3e00000 	mvn	r0, #0
   2386c:	ea00001f 	b	238f0 <Verify_SHA256_hash+0xe0>
   23870:	e3a01020 	mov	r1, #32
   23874:	e3a00302 	mov	r0, #134217728	; 0x8000000
   23878:	ebfff779 	bl	21664 <flush_cache>
   2387c:	e3550000 	cmp	r5, #0
   23880:	0a00000d 	beq	238bc <Verify_SHA256_hash+0xac>
   23884:	e3a01c01 	mov	r1, #256	; 0x100
   23888:	e1a0000d 	mov	r0, sp
   2388c:	ebfff774 	bl	21664 <flush_cache>
   23890:	e1a00004 	mov	r0, r4
   23894:	e59f206c 	ldr	r2, [pc, #108]	; 23908 <Verify_SHA256_hash+0xf8>
   23898:	e1a0100d 	mov	r1, sp
   2389c:	ebffff81 	bl	236a8 <do_RSA>
   238a0:	e2504000 	subs	r4, r0, #0
   238a4:	1a000004 	bne	238bc <Verify_SHA256_hash+0xac>
   238a8:	e59f1050 	ldr	r1, [pc, #80]	; 23900 <Verify_SHA256_hash+0xf0>
   238ac:	e59f0058 	ldr	r0, [pc, #88]	; 2390c <Verify_SHA256_hash+0xfc>
   238b0:	eb002902 	bl	2dcc0 <printf>
   238b4:	e3e00002 	mvn	r0, #2
   238b8:	ea00000c 	b	238f0 <Verify_SHA256_hash+0xe0>
   238bc:	e3a01020 	mov	r1, #32
   238c0:	e1a00004 	mov	r0, r4
   238c4:	ebfff766 	bl	21664 <flush_cache>
   238c8:	e3a02020 	mov	r2, #32
   238cc:	e1a01004 	mov	r1, r4
   238d0:	e3a00302 	mov	r0, #134217728	; 0x8000000
   238d4:	eb00d78d 	bl	59710 <memcmp>
   238d8:	e3500000 	cmp	r0, #0
   238dc:	0a000003 	beq	238f0 <Verify_SHA256_hash+0xe0>
   238e0:	e59f1018 	ldr	r1, [pc, #24]	; 23900 <Verify_SHA256_hash+0xf0>
   238e4:	e59f0024 	ldr	r0, [pc, #36]	; 23910 <Verify_SHA256_hash+0x100>
   238e8:	eb0028f4 	bl	2dcc0 <printf>
   238ec:	e3e00001 	mvn	r0, #1
   238f0:	e28ddf41 	add	sp, sp, #260	; 0x104
   238f4:	e8bd80f0 	pop	{r4, r5, r6, r7, pc}
   238f8:	00063b80 	.word	0x00063b80
   238fc:	000735f0 	.word	0x000735f0
   23900:	00063c80 	.word	0x00063c80
   23904:	000669c6 	.word	0x000669c6
   23908:	08000200 	.word	0x08000200
   2390c:	000669e9 	.word	0x000669e9
   23910:	00066a07 	.word	0x00066a07

00023914 <lldiv>:
   23914:	e92d4037 	push	{r0, r1, r2, r4, r5, lr}
   23918:	e1a04001 	mov	r4, r1
   2391c:	e3a05000 	mov	r5, #0
   23920:	e1943005 	orrs	r3, r4, r5
   23924:	e88d0003 	stm	sp, {r0, r1}
   23928:	0732f210 	udiveq	r2, r0, r2
   2392c:	088d0024 	stmeq	sp, {r2, r5}
   23930:	0a000002 	beq	23940 <lldiv+0x2c>
   23934:	e1a01002 	mov	r1, r2
   23938:	e1a0000d 	mov	r0, sp
   2393c:	eb00c6de 	bl	554bc <__div64_32>
   23940:	e1cd00d0 	ldrd	r0, [sp]
   23944:	e28dd00c 	add	sp, sp, #12
   23948:	e8bd8030 	pop	{r4, r5, pc}

0002394c <init>:
   2394c:	e92d4010 	push	{r4, lr}
   23950:	e3a00f83 	mov	r0, #524	; 0x20c
   23954:	eb0002db 	bl	244c8 <my_malloc>
   23958:	e2504000 	subs	r4, r0, #0
   2395c:	0a000005 	beq	23978 <init+0x2c>
   23960:	e3a02f83 	mov	r2, #524	; 0x20c
   23964:	e3a01000 	mov	r1, #0
   23968:	eb00d71b 	bl	595dc <memset>
   2396c:	e3a03001 	mov	r3, #1
   23970:	e5843000 	str	r3, [r4]
   23974:	e5843004 	str	r3, [r4, #4]
   23978:	e1a00004 	mov	r0, r4
   2397c:	e8bd8010 	pop	{r4, pc}

00023980 <move>:
   23980:	e92d4070 	push	{r4, r5, r6, lr}
   23984:	e1a05000 	mov	r5, r0
   23988:	ebffffef 	bl	2394c <init>
   2398c:	e2504000 	subs	r4, r0, #0
   23990:	0a000002 	beq	239a0 <move+0x20>
   23994:	e3a02f83 	mov	r2, #524	; 0x20c
   23998:	e1a01005 	mov	r1, r5
   2399c:	eb00d72e 	bl	5965c <memcpy>
   239a0:	e1a00004 	mov	r0, r4
   239a4:	e8bd8070 	pop	{r4, r5, r6, pc}

000239a8 <move_p>:
   239a8:	e92d4070 	push	{r4, r5, r6, lr}
   239ac:	e1a04000 	mov	r4, r0
   239b0:	e1a05001 	mov	r5, r1
   239b4:	ebffffe4 	bl	2394c <init>
   239b8:	e3500000 	cmp	r0, #0
   239bc:	08bd8070 	popeq	{r4, r5, r6, pc}
   239c0:	e3a03000 	mov	r3, #0
   239c4:	e3e02000 	mvn	r2, #0
   239c8:	e1550003 	cmp	r5, r3
   239cc:	01540002 	cmpeq	r4, r2
   239d0:	83a03002 	movhi	r3, #2
   239d4:	93a03001 	movls	r3, #1
   239d8:	89800038 	stmibhi	r0, {r3, r4, r5}
   239dc:	99800018 	stmibls	r0, {r3, r4}
   239e0:	e8bd8070 	pop	{r4, r5, r6, pc}

000239e4 <Cmp>:
   239e4:	e5903004 	ldr	r3, [r0, #4]
   239e8:	e5912004 	ldr	r2, [r1, #4]
   239ec:	e1530002 	cmp	r3, r2
   239f0:	ca000010 	bgt	23a38 <Cmp+0x54>
   239f4:	ba000011 	blt	23a40 <Cmp+0x5c>
   239f8:	e2432001 	sub	r2, r3, #1
   239fc:	e2833002 	add	r3, r3, #2
   23a00:	e1a03103 	lsl	r3, r3, #2
   23a04:	e0800003 	add	r0, r0, r3
   23a08:	e0813003 	add	r3, r1, r3
   23a0c:	e3520000 	cmp	r2, #0
   23a10:	ba000006 	blt	23a30 <Cmp+0x4c>
   23a14:	e530c004 	ldr	ip, [r0, #-4]!
   23a18:	e5331004 	ldr	r1, [r3, #-4]!
   23a1c:	e15c0001 	cmp	ip, r1
   23a20:	8a000004 	bhi	23a38 <Cmp+0x54>
   23a24:	3a000005 	bcc	23a40 <Cmp+0x5c>
   23a28:	e2422001 	sub	r2, r2, #1
   23a2c:	eafffff6 	b	23a0c <Cmp+0x28>
   23a30:	e3a00000 	mov	r0, #0
   23a34:	e12fff1e 	bx	lr
   23a38:	e3a00001 	mov	r0, #1
   23a3c:	e12fff1e 	bx	lr
   23a40:	e3e00000 	mvn	r0, #0
   23a44:	e12fff1e 	bx	lr

00023a48 <isZero>:
   23a48:	e5903004 	ldr	r3, [r0, #4]
   23a4c:	e3530001 	cmp	r3, #1
   23a50:	05900008 	ldreq	r0, [r0, #8]
   23a54:	016f0f10 	clzeq	r0, r0
   23a58:	01a002a0 	lsreq	r0, r0, #5
   23a5c:	13a00000 	movne	r0, #0
   23a60:	e12fff1e 	bx	lr

00023a64 <Sub>:
   23a64:	e92d42f0 	push	{r4, r5, r6, r7, r9, lr}
   23a68:	e5912000 	ldr	r2, [r1]
   23a6c:	e1a04000 	mov	r4, r0
   23a70:	e5906000 	ldr	r6, [r0]
   23a74:	e1560002 	cmp	r6, r2
   23a78:	1a000027 	bne	23b1c <Sub+0xb8>
   23a7c:	e1a05001 	mov	r5, r1
   23a80:	ebffffd7 	bl	239e4 <Cmp>
   23a84:	e2501000 	subs	r1, r0, #0
   23a88:	1a000003 	bne	23a9c <Sub+0x38>
   23a8c:	e3a02f83 	mov	r2, #524	; 0x20c
   23a90:	e1a00004 	mov	r0, r4
   23a94:	eb00d6d0 	bl	595dc <memset>
   23a98:	ea000029 	b	23b44 <Sub+0xe0>
   23a9c:	e2843008 	add	r3, r4, #8
   23aa0:	e2850008 	add	r0, r5, #8
   23aa4:	da000020 	ble	23b2c <Sub+0xc8>
   23aa8:	e5942004 	ldr	r2, [r4, #4]
   23aac:	e1a07003 	mov	r7, r3
   23ab0:	e3a0e000 	mov	lr, #0
   23ab4:	e1a0c00e 	mov	ip, lr
   23ab8:	e15c0002 	cmp	ip, r2
   23abc:	aa00000d 	bge	23af8 <Sub+0x94>
   23ac0:	e797110c 	ldr	r1, [r7, ip, lsl #2]
   23ac4:	e2833004 	add	r3, r3, #4
   23ac8:	e790610c 	ldr	r6, [r0, ip, lsl #2]
   23acc:	e28cc001 	add	ip, ip, #1
   23ad0:	e06e5001 	rsb	r5, lr, r1
   23ad4:	e1550006 	cmp	r5, r6
   23ad8:	306e1001 	rsbcc	r1, lr, r1
   23adc:	20665005 	rsbcs	r5, r6, r5
   23ae0:	30661001 	rsbcc	r1, r6, r1
   23ae4:	25035004 	strcs	r5, [r3, #-4]
   23ae8:	35031004 	strcc	r1, [r3, #-4]
   23aec:	23a0e000 	movcs	lr, #0
   23af0:	33a0e001 	movcc	lr, #1
   23af4:	eaffffef 	b	23ab8 <Sub+0x54>
   23af8:	e2823002 	add	r3, r2, #2
   23afc:	e0843103 	add	r3, r4, r3, lsl #2
   23b00:	e5331004 	ldr	r1, [r3, #-4]!
   23b04:	e2420001 	sub	r0, r2, #1
   23b08:	e3510000 	cmp	r1, #0
   23b0c:	01a02000 	moveq	r2, r0
   23b10:	0afffffa 	beq	23b00 <Sub+0x9c>
   23b14:	e5842004 	str	r2, [r4, #4]
   23b18:	ea000009 	b	23b44 <Sub+0xe0>
   23b1c:	e2622001 	rsb	r2, r2, #1
   23b20:	e5812000 	str	r2, [r1]
   23b24:	e8bd42f0 	pop	{r4, r5, r6, r7, r9, lr}
   23b28:	ea000007 	b	23b4c <Add>
   23b2c:	e1a07000 	mov	r7, r0
   23b30:	e5952004 	ldr	r2, [r5, #4]
   23b34:	e2666001 	rsb	r6, r6, #1
   23b38:	e1a00003 	mov	r0, r3
   23b3c:	e5846000 	str	r6, [r4]
   23b40:	eaffffda 	b	23ab0 <Sub+0x4c>
   23b44:	e1a00004 	mov	r0, r4
   23b48:	e8bd82f0 	pop	{r4, r5, r6, r7, r9, pc}

00023b4c <Add>:
   23b4c:	e92d40f0 	push	{r4, r5, r6, r7, lr}
   23b50:	e5912000 	ldr	r2, [r1]
   23b54:	e1a03000 	mov	r3, r0
   23b58:	e590e000 	ldr	lr, [r0]
   23b5c:	e1a0c001 	mov	ip, r1
   23b60:	e15e0002 	cmp	lr, r2
   23b64:	1a000020 	bne	23bec <Add+0xa0>
   23b68:	e5912004 	ldr	r2, [r1, #4]
   23b6c:	e3e04000 	mvn	r4, #0
   23b70:	e5901004 	ldr	r1, [r0, #4]
   23b74:	e3a05000 	mov	r5, #0
   23b78:	e1510002 	cmp	r1, r2
   23b7c:	b5802004 	strlt	r2, [r0, #4]
   23b80:	e3a01001 	mov	r1, #1
   23b84:	e3a02000 	mov	r2, #0
   23b88:	e590e004 	ldr	lr, [r0, #4]
   23b8c:	e2816001 	add	r6, r1, #1
   23b90:	e2411001 	sub	r1, r1, #1
   23b94:	e151000e 	cmp	r1, lr
   23b98:	aa00000d 	bge	23bd4 <Add+0x88>
   23b9c:	e7937106 	ldr	r7, [r3, r6, lsl #2]
   23ba0:	e3a01000 	mov	r1, #0
   23ba4:	e79c0106 	ldr	r0, [ip, r6, lsl #2]
   23ba8:	e0900007 	adds	r0, r0, r7
   23bac:	e2a11000 	adc	r1, r1, #0
   23bb0:	e0900002 	adds	r0, r0, r2
   23bb4:	e2a11000 	adc	r1, r1, #0
   23bb8:	e7830106 	str	r0, [r3, r6, lsl #2]
   23bbc:	e1510005 	cmp	r1, r5
   23bc0:	e1a01006 	mov	r1, r6
   23bc4:	01500004 	cmpeq	r0, r4
   23bc8:	83a02001 	movhi	r2, #1
   23bcc:	93a02000 	movls	r2, #0
   23bd0:	eaffffed 	b	23b8c <Add+0x40>
   23bd4:	e35e0080 	cmp	lr, #128	; 0x80
   23bd8:	d28e1002 	addle	r1, lr, #2
   23bdc:	d7832101 	strle	r2, [r3, r1, lsl #2]
   23be0:	d082200e 	addle	r2, r2, lr
   23be4:	d5832004 	strle	r2, [r3, #4]
   23be8:	ea000003 	b	23bfc <Add+0xb0>
   23bec:	e2622001 	rsb	r2, r2, #1
   23bf0:	e5812000 	str	r2, [r1]
   23bf4:	e8bd40f0 	pop	{r4, r5, r6, r7, lr}
   23bf8:	eaffff99 	b	23a64 <Sub>
   23bfc:	e1a00003 	mov	r0, r3
   23c00:	e8bd80f0 	pop	{r4, r5, r6, r7, pc}

00023c04 <Sub_p>:
   23c04:	e52de004 	push	{lr}		; (str lr, [sp, #-4]!)
   23c08:	e590e000 	ldr	lr, [r0]
   23c0c:	e1a03000 	mov	r3, r0
   23c10:	e0120e91 	muls	r2, r1, lr
   23c14:	4a00001b 	bmi	23c88 <Sub_p+0x84>
   23c18:	e5902008 	ldr	r2, [r0, #8]
   23c1c:	e1520001 	cmp	r2, r1
   23c20:	20611002 	rsbcs	r1, r1, r2
   23c24:	25801008 	strcs	r1, [r0, #8]
   23c28:	2a000019 	bcs	23c94 <Sub_p+0x90>
   23c2c:	e590c004 	ldr	ip, [r0, #4]
   23c30:	e35c0001 	cmp	ip, #1
   23c34:	00621001 	rsbeq	r1, r2, r1
   23c38:	026ee001 	rsbeq	lr, lr, #1
   23c3c:	05801008 	streq	r1, [r0, #8]
   23c40:	0580e000 	streq	lr, [r0]
   23c44:	0a000012 	beq	23c94 <Sub_p+0x90>
   23c48:	e0611002 	rsb	r1, r1, r2
   23c4c:	e3e0e000 	mvn	lr, #0
   23c50:	e5a01008 	str	r1, [r0, #8]!
   23c54:	e3a02001 	mov	r2, #1
   23c58:	e5b01004 	ldr	r1, [r0, #4]!
   23c5c:	e3510000 	cmp	r1, #0
   23c60:	0580e000 	streq	lr, [r0]
   23c64:	02822001 	addeq	r2, r2, #1
   23c68:	0afffffa 	beq	23c58 <Sub_p+0x54>
   23c6c:	e2822002 	add	r2, r2, #2
   23c70:	e3510001 	cmp	r1, #1
   23c74:	024cc001 	subeq	ip, ip, #1
   23c78:	e2411001 	sub	r1, r1, #1
   23c7c:	0583c004 	streq	ip, [r3, #4]
   23c80:	e7831102 	str	r1, [r3, r2, lsl #2]
   23c84:	ea000002 	b	23c94 <Sub_p+0x90>
   23c88:	e2611000 	rsb	r1, r1, #0
   23c8c:	e49de004 	pop	{lr}		; (ldr lr, [sp], #4)
   23c90:	ea000001 	b	23c9c <Add_p>
   23c94:	e1a00003 	mov	r0, r3
   23c98:	e49df004 	pop	{pc}		; (ldr pc, [sp], #4)

00023c9c <Add_p>:
   23c9c:	e5902000 	ldr	r2, [r0]
   23ca0:	e0120192 	muls	r2, r2, r1
   23ca4:	4a000003 	bmi	23cb8 <Add_p+0x1c>
   23ca8:	e5902008 	ldr	r2, [r0, #8]
   23cac:	e0821001 	add	r1, r2, r1
   23cb0:	e5801008 	str	r1, [r0, #8]
   23cb4:	e12fff1e 	bx	lr
   23cb8:	e2611000 	rsb	r1, r1, #0
   23cbc:	eaffffd0 	b	23c04 <Sub_p>

00023cc0 <Mul>:
   23cc0:	e92d4eff 	push	{r0, r1, r2, r3, r4, r5, r6, r7, r9, sl, fp, lr}
   23cc4:	e1a09000 	mov	r9, r0
   23cc8:	e1a07001 	mov	r7, r1
   23ccc:	ebffff1e 	bl	2394c <init>
   23cd0:	e2506000 	subs	r6, r0, #0
   23cd4:	1a000001 	bne	23ce0 <Mul+0x20>
   23cd8:	e3a00000 	mov	r0, #0
   23cdc:	ea000053 	b	23e30 <Mul+0x170>
   23ce0:	ebffff19 	bl	2394c <init>
   23ce4:	e2504000 	subs	r4, r0, #0
   23ce8:	1287a008 	addne	sl, r7, #8
   23cec:	13a05000 	movne	r5, #0
   23cf0:	1284b004 	addne	fp, r4, #4
   23cf4:	0afffff7 	beq	23cd8 <Mul+0x18>
   23cf8:	e5973004 	ldr	r3, [r7, #4]
   23cfc:	e1550003 	cmp	r5, r3
   23d00:	aa000043 	bge	23e14 <Mul+0x154>
   23d04:	e1a02009 	mov	r2, r9
   23d08:	e5991004 	ldr	r1, [r9, #4]
   23d0c:	e5841004 	str	r1, [r4, #4]
   23d10:	e58db004 	str	fp, [sp, #4]
   23d14:	e5b23004 	ldr	r3, [r2, #4]!
   23d18:	e58d2000 	str	r2, [sp]
   23d1c:	e3a02000 	mov	r2, #0
   23d20:	e58d300c 	str	r3, [sp, #12]
   23d24:	e1a0c002 	mov	ip, r2
   23d28:	e58db008 	str	fp, [sp, #8]
   23d2c:	e59d300c 	ldr	r3, [sp, #12]
   23d30:	e15c0003 	cmp	ip, r3
   23d34:	aa00000c 	bge	23d6c <Mul+0xac>
   23d38:	e59d0000 	ldr	r0, [sp]
   23d3c:	e28cc001 	add	ip, ip, #1
   23d40:	e59ae000 	ldr	lr, [sl]
   23d44:	e5b03004 	ldr	r3, [r0, #4]!
   23d48:	e58d0000 	str	r0, [sp]
   23d4c:	e1a00003 	mov	r0, r3
   23d50:	e3a03000 	mov	r3, #0
   23d54:	e0a32e90 	umlal	r2, r3, r0, lr
   23d58:	e59d0008 	ldr	r0, [sp, #8]
   23d5c:	e5a02004 	str	r2, [r0, #4]!
   23d60:	e1a02003 	mov	r2, r3
   23d64:	e58d0008 	str	r0, [sp, #8]
   23d68:	eaffffef 	b	23d2c <Mul+0x6c>
   23d6c:	e2923000 	adds	r3, r2, #0
   23d70:	13a03001 	movne	r3, #1
   23d74:	e3510080 	cmp	r1, #128	; 0x80
   23d78:	c3a03000 	movgt	r3, #0
   23d7c:	e3530000 	cmp	r3, #0
   23d80:	12813001 	addne	r3, r1, #1
   23d84:	12811002 	addne	r1, r1, #2
   23d88:	15843004 	strne	r3, [r4, #4]
   23d8c:	e5943004 	ldr	r3, [r4, #4]
   23d90:	17842101 	strne	r2, [r4, r1, lsl #2]
   23d94:	e2652081 	rsb	r2, r5, #129	; 0x81
   23d98:	e1530002 	cmp	r3, r2
   23d9c:	aa000015 	bge	23df8 <Mul+0x138>
   23da0:	e0833005 	add	r3, r3, r5
   23da4:	e5843004 	str	r3, [r4, #4]
   23da8:	e2432001 	sub	r2, r3, #1
   23dac:	e2833002 	add	r3, r3, #2
   23db0:	e1a00105 	lsl	r0, r5, #2
   23db4:	e0843103 	add	r3, r4, r3, lsl #2
   23db8:	e1520005 	cmp	r2, r5
   23dbc:	ba000005 	blt	23dd8 <Mul+0x118>
   23dc0:	e0601102 	rsb	r1, r0, r2, lsl #2
   23dc4:	e2422001 	sub	r2, r2, #1
   23dc8:	e0841001 	add	r1, r4, r1
   23dcc:	e5911008 	ldr	r1, [r1, #8]
   23dd0:	e5231004 	str	r1, [r3, #-4]!
   23dd4:	eafffff7 	b	23db8 <Mul+0xf8>
   23dd8:	e3a03000 	mov	r3, #0
   23ddc:	e1a02003 	mov	r2, r3
   23de0:	e1530005 	cmp	r3, r5
   23de4:	b59d1004 	ldrlt	r1, [sp, #4]
   23de8:	b2833001 	addlt	r3, r3, #1
   23dec:	b5a12004 	strlt	r2, [r1, #4]!
   23df0:	b58d1004 	strlt	r1, [sp, #4]
   23df4:	bafffff9 	blt	23de0 <Mul+0x120>
   23df8:	e1a00006 	mov	r0, r6
   23dfc:	e1a01004 	mov	r1, r4
   23e00:	ebffff51 	bl	23b4c <Add>
   23e04:	e2855001 	add	r5, r5, #1
   23e08:	e1a06000 	mov	r6, r0
   23e0c:	e28aa004 	add	sl, sl, #4
   23e10:	eaffffb8 	b	23cf8 <Mul+0x38>
   23e14:	e5993000 	ldr	r3, [r9]
   23e18:	e1a00006 	mov	r0, r6
   23e1c:	e5972000 	ldr	r2, [r7]
   23e20:	e0833002 	add	r3, r3, r2
   23e24:	e2533001 	subs	r3, r3, #1
   23e28:	13a03001 	movne	r3, #1
   23e2c:	e5863000 	str	r3, [r6]
   23e30:	e28dd010 	add	sp, sp, #16
   23e34:	e8bd8ef0 	pop	{r4, r5, r6, r7, r9, sl, fp, pc}

00023e38 <Mul_p>:
   23e38:	e92d42f0 	push	{r4, r5, r6, r7, r9, lr}
   23e3c:	e1a0e000 	mov	lr, r0
   23e40:	e3a07000 	mov	r7, #0
   23e44:	e1a06007 	mov	r6, r7
   23e48:	e1a04001 	mov	r4, r1
   23e4c:	e1a05fc1 	asr	r5, r1, #31
   23e50:	e5bec004 	ldr	ip, [lr, #4]!
   23e54:	e156000c 	cmp	r6, ip
   23e58:	aa000008 	bge	23e80 <Mul_p+0x48>
   23e5c:	e5be9004 	ldr	r9, [lr, #4]!
   23e60:	e2866001 	add	r6, r6, #1
   23e64:	e0832991 	umull	r2, r3, r1, r9
   23e68:	e0233599 	mla	r3, r9, r5, r3
   23e6c:	e0922007 	adds	r2, r2, r7
   23e70:	e58e2000 	str	r2, [lr]
   23e74:	e2a33000 	adc	r3, r3, #0
   23e78:	e1a07003 	mov	r7, r3
   23e7c:	eafffff4 	b	23e54 <Mul_p+0x1c>
   23e80:	e3570000 	cmp	r7, #0
   23e84:	0a000004 	beq	23e9c <Mul_p+0x64>
   23e88:	e35c0080 	cmp	ip, #128	; 0x80
   23e8c:	d28c3001 	addle	r3, ip, #1
   23e90:	d28cc002 	addle	ip, ip, #2
   23e94:	d5803004 	strle	r3, [r0, #4]
   23e98:	d780710c 	strle	r7, [r0, ip, lsl #2]
   23e9c:	e3510000 	cmp	r1, #0
   23ea0:	b5903000 	ldrlt	r3, [r0]
   23ea4:	b2633001 	rsblt	r3, r3, #1
   23ea8:	b5803000 	strlt	r3, [r0]
   23eac:	e8bd82f0 	pop	{r4, r5, r6, r7, r9, pc}

00023eb0 <Div>:
   23eb0:	e92d4ef3 	push	{r0, r1, r4, r5, r6, r7, r9, sl, fp, lr}
   23eb4:	e1a0a000 	mov	sl, r0
   23eb8:	e1a05001 	mov	r5, r1
   23ebc:	ebfffea2 	bl	2394c <init>
   23ec0:	e2504000 	subs	r4, r0, #0
   23ec4:	1a000001 	bne	23ed0 <Div+0x20>
   23ec8:	e3a00000 	mov	r0, #0
   23ecc:	ea00005f 	b	24050 <Div+0x1a0>
   23ed0:	ebfffe9d 	bl	2394c <init>
   23ed4:	e3500000 	cmp	r0, #0
   23ed8:	11a0900a 	movne	r9, sl
   23edc:	0afffff9 	beq	23ec8 <Div+0x18>
   23ee0:	e1a01005 	mov	r1, r5
   23ee4:	e1a00009 	mov	r0, r9
   23ee8:	ebfffebd 	bl	239e4 <Cmp>
   23eec:	e3500000 	cmp	r0, #0
   23ef0:	da000046 	ble	24010 <Div+0x160>
   23ef4:	e5993004 	ldr	r3, [r9, #4]
   23ef8:	e595c004 	ldr	ip, [r5, #4]
   23efc:	e0890103 	add	r0, r9, r3, lsl #2
   23f00:	e28c2001 	add	r2, ip, #1
   23f04:	e5901004 	ldr	r1, [r0, #4]
   23f08:	e7952102 	ldr	r2, [r5, r2, lsl #2]
   23f0c:	e1510002 	cmp	r1, r2
   23f10:	9a000004 	bls	23f28 <Div+0x78>
   23f14:	e2820001 	add	r0, r2, #1
   23f18:	e06cb003 	rsb	fp, ip, r3
   23f1c:	e730f011 	udiv	r0, r1, r0
   23f20:	e3a01000 	mov	r1, #0
   23f24:	ea000012 	b	23f74 <Div+0xc4>
   23f28:	e153000c 	cmp	r3, ip
   23f2c:	da00000b 	ble	23f60 <Div+0xb0>
   23f30:	e06c3003 	rsb	r3, ip, r3
   23f34:	e590c000 	ldr	ip, [r0]
   23f38:	e3a06000 	mov	r6, #0
   23f3c:	e243b001 	sub	fp, r3, #1
   23f40:	e096000c 	adds	r0, r6, ip
   23f44:	e2a11000 	adc	r1, r1, #0
   23f48:	e3720001 	cmn	r2, #1
   23f4c:	01a00001 	moveq	r0, r1
   23f50:	0afffff2 	beq	23f20 <Div+0x70>
   23f54:	e2822001 	add	r2, r2, #1
   23f58:	ebfffe6d 	bl	23914 <lldiv>
   23f5c:	ea000004 	b	23f74 <Div+0xc4>
   23f60:	e1a00004 	mov	r0, r4
   23f64:	e3a01001 	mov	r1, #1
   23f68:	ebffff4b 	bl	23c9c <Add_p>
   23f6c:	e1a04000 	mov	r4, r0
   23f70:	ea000026 	b	24010 <Div+0x160>
   23f74:	ebfffe8b 	bl	239a8 <move_p>
   23f78:	e5901004 	ldr	r1, [r0, #4]
   23f7c:	e3e0c003 	mvn	ip, #3
   23f80:	e1a02000 	mov	r2, r0
   23f84:	e08b1001 	add	r1, fp, r1
   23f88:	e5801004 	str	r1, [r0, #4]
   23f8c:	e2410001 	sub	r0, r1, #1
   23f90:	e2811002 	add	r1, r1, #2
   23f94:	e00c0b9c 	mul	ip, ip, fp
   23f98:	e0821101 	add	r1, r2, r1, lsl #2
   23f9c:	e150000b 	cmp	r0, fp
   23fa0:	ba000005 	blt	23fbc <Div+0x10c>
   23fa4:	e08ce100 	add	lr, ip, r0, lsl #2
   23fa8:	e2400001 	sub	r0, r0, #1
   23fac:	e082e00e 	add	lr, r2, lr
   23fb0:	e59ee008 	ldr	lr, [lr, #8]
   23fb4:	e521e004 	str	lr, [r1, #-4]!
   23fb8:	eafffff7 	b	23f9c <Div+0xec>
   23fbc:	e2820004 	add	r0, r2, #4
   23fc0:	e3a01000 	mov	r1, #0
   23fc4:	e151000b 	cmp	r1, fp
   23fc8:	b3a03000 	movlt	r3, #0
   23fcc:	b2811001 	addlt	r1, r1, #1
   23fd0:	b5a03004 	strlt	r3, [r0, #4]!
   23fd4:	bafffffa 	blt	23fc4 <Div+0x114>
   23fd8:	e1a01002 	mov	r1, r2
   23fdc:	e1a00004 	mov	r0, r4
   23fe0:	e58d2004 	str	r2, [sp, #4]
   23fe4:	ebfffed8 	bl	23b4c <Add>
   23fe8:	e59d2004 	ldr	r2, [sp, #4]
   23fec:	e1a01005 	mov	r1, r5
   23ff0:	e1a04000 	mov	r4, r0
   23ff4:	e1a00002 	mov	r0, r2
   23ff8:	ebffff30 	bl	23cc0 <Mul>
   23ffc:	e1a01000 	mov	r1, r0
   24000:	e1a00009 	mov	r0, r9
   24004:	ebfffe96 	bl	23a64 <Sub>
   24008:	e1a09000 	mov	r9, r0
   2400c:	eaffffb3 	b	23ee0 <Div+0x30>
   24010:	e1a01005 	mov	r1, r5
   24014:	e1a00009 	mov	r0, r9
   24018:	ebfffe71 	bl	239e4 <Cmp>
   2401c:	e3500000 	cmp	r0, #0
   24020:	1a000003 	bne	24034 <Div+0x184>
   24024:	e1a00004 	mov	r0, r4
   24028:	e3a01001 	mov	r1, #1
   2402c:	ebffff1a 	bl	23c9c <Add_p>
   24030:	e1a04000 	mov	r4, r0
   24034:	e59a3000 	ldr	r3, [sl]
   24038:	e1a00004 	mov	r0, r4
   2403c:	e5952000 	ldr	r2, [r5]
   24040:	e0833002 	add	r3, r3, r2
   24044:	e2533001 	subs	r3, r3, #1
   24048:	13a03001 	movne	r3, #1
   2404c:	e5843000 	str	r3, [r4]
   24050:	e28dd008 	add	sp, sp, #8
   24054:	e8bd8ef0 	pop	{r4, r5, r6, r7, r9, sl, fp, pc}

00024058 <Div_p>:
   24058:	e92d4ef3 	push	{r0, r1, r4, r5, r6, r7, r9, sl, fp, lr}
   2405c:	e5905004 	ldr	r5, [r0, #4]
   24060:	e1a09001 	mov	r9, r1
   24064:	e1a04000 	mov	r4, r0
   24068:	e3550001 	cmp	r5, #1
   2406c:	05903008 	ldreq	r3, [r0, #8]
   24070:	0739f113 	udiveq	r9, r3, r1
   24074:	05809008 	streq	r9, [r0, #8]
   24078:	0a000023 	beq	2410c <Div_p+0xb4>
   2407c:	e2453001 	sub	r3, r5, #1
   24080:	e2855002 	add	r5, r5, #2
   24084:	e3a06000 	mov	r6, #0
   24088:	e0805105 	add	r5, r0, r5, lsl #2
   2408c:	e3530000 	cmp	r3, #0
   24090:	ba000013 	blt	240e4 <Div_p+0x8c>
   24094:	e5352004 	ldr	r2, [r5, #-4]!
   24098:	e3a0a000 	mov	sl, #0
   2409c:	e1a0b006 	mov	fp, r6
   240a0:	e58d3004 	str	r3, [sp, #4]
   240a4:	e09a6002 	adds	r6, sl, r2
   240a8:	e1a02009 	mov	r2, r9
   240ac:	e2ab7000 	adc	r7, fp, #0
   240b0:	e1a00006 	mov	r0, r6
   240b4:	e1a01007 	mov	r1, r7
   240b8:	ebfffe15 	bl	23914 <lldiv>
   240bc:	e1a02009 	mov	r2, r9
   240c0:	e5850000 	str	r0, [r5]
   240c4:	e1a01007 	mov	r1, r7
   240c8:	e1a00006 	mov	r0, r6
   240cc:	ebfffe10 	bl	23914 <lldiv>
   240d0:	e59d3004 	ldr	r3, [sp, #4]
   240d4:	e0810990 	umull	r0, r1, r0, r9
   240d8:	e2433001 	sub	r3, r3, #1
   240dc:	e0606006 	rsb	r6, r0, r6
   240e0:	eaffffe9 	b	2408c <Div_p+0x34>
   240e4:	e5943004 	ldr	r3, [r4, #4]
   240e8:	e2432001 	sub	r2, r3, #1
   240ec:	e2833001 	add	r3, r3, #1
   240f0:	e7943103 	ldr	r3, [r4, r3, lsl #2]
   240f4:	e3530000 	cmp	r3, #0
   240f8:	05842004 	streq	r2, [r4, #4]
   240fc:	e3590000 	cmp	r9, #0
   24100:	b5943000 	ldrlt	r3, [r4]
   24104:	b2633001 	rsblt	r3, r3, #1
   24108:	b5843000 	strlt	r3, [r4]
   2410c:	e1a00004 	mov	r0, r4
   24110:	e28dd008 	add	sp, sp, #8
   24114:	e8bd8ef0 	pop	{r4, r5, r6, r7, r9, sl, fp, pc}

00024118 <Mod>:
   24118:	e92d4ef0 	push	{r4, r5, r6, r7, r9, sl, fp, lr}
   2411c:	e1a04000 	mov	r4, r0
   24120:	e1a09001 	mov	r9, r1
   24124:	e3a0a000 	mov	sl, #0
   24128:	e1a01009 	mov	r1, r9
   2412c:	e1a00004 	mov	r0, r4
   24130:	ebfffe2b 	bl	239e4 <Cmp>
   24134:	e3500000 	cmp	r0, #0
   24138:	da000043 	ble	2424c <Mod+0x134>
   2413c:	e5941004 	ldr	r1, [r4, #4]
   24140:	e5995004 	ldr	r5, [r9, #4]
   24144:	e0840101 	add	r0, r4, r1, lsl #2
   24148:	e2852001 	add	r2, r5, #1
   2414c:	e5903004 	ldr	r3, [r0, #4]
   24150:	e7992102 	ldr	r2, [r9, r2, lsl #2]
   24154:	e1530002 	cmp	r3, r2
   24158:	9a000004 	bls	24170 <Mod+0x58>
   2415c:	e2820001 	add	r0, r2, #1
   24160:	e0655001 	rsb	r5, r5, r1
   24164:	e730f013 	udiv	r0, r3, r0
   24168:	e3a01000 	mov	r1, #0
   2416c:	ea000013 	b	241c0 <Mod+0xa8>
   24170:	e1510005 	cmp	r1, r5
   24174:	da00000c 	ble	241ac <Mod+0x94>
   24178:	e1a07003 	mov	r7, r3
   2417c:	e5903000 	ldr	r3, [r0]
   24180:	e3a06000 	mov	r6, #0
   24184:	e0655001 	rsb	r5, r5, r1
   24188:	e0960003 	adds	r0, r6, r3
   2418c:	e2455001 	sub	r5, r5, #1
   24190:	e2a71000 	adc	r1, r7, #0
   24194:	e3720001 	cmn	r2, #1
   24198:	01a00001 	moveq	r0, r1
   2419c:	0afffff1 	beq	24168 <Mod+0x50>
   241a0:	e2822001 	add	r2, r2, #1
   241a4:	ebfffdda 	bl	23914 <lldiv>
   241a8:	ea000004 	b	241c0 <Mod+0xa8>
   241ac:	e1a00004 	mov	r0, r4
   241b0:	e1a01009 	mov	r1, r9
   241b4:	ebfffe2a 	bl	23a64 <Sub>
   241b8:	e1a04000 	mov	r4, r0
   241bc:	ea000022 	b	2424c <Mod+0x134>
   241c0:	ebfffdf8 	bl	239a8 <move_p>
   241c4:	e3500000 	cmp	r0, #0
   241c8:	1a000001 	bne	241d4 <Mod+0xbc>
   241cc:	e3a00000 	mov	r0, #0
   241d0:	e8bd8ef0 	pop	{r4, r5, r6, r7, r9, sl, fp, pc}
   241d4:	e1a01009 	mov	r1, r9
   241d8:	ebfffeb8 	bl	23cc0 <Mul>
   241dc:	e2501000 	subs	r1, r0, #0
   241e0:	0afffff9 	beq	241cc <Mod+0xb4>
   241e4:	e5913004 	ldr	r3, [r1, #4]
   241e8:	e3e00003 	mvn	r0, #3
   241ec:	e0853003 	add	r3, r5, r3
   241f0:	e5813004 	str	r3, [r1, #4]
   241f4:	e2432001 	sub	r2, r3, #1
   241f8:	e2833002 	add	r3, r3, #2
   241fc:	e0000590 	mul	r0, r0, r5
   24200:	e0813103 	add	r3, r1, r3, lsl #2
   24204:	e1520005 	cmp	r2, r5
   24208:	ba000005 	blt	24224 <Mod+0x10c>
   2420c:	e080c102 	add	ip, r0, r2, lsl #2
   24210:	e2422001 	sub	r2, r2, #1
   24214:	e081c00c 	add	ip, r1, ip
   24218:	e59cc008 	ldr	ip, [ip, #8]
   2421c:	e523c004 	str	ip, [r3, #-4]!
   24220:	eafffff7 	b	24204 <Mod+0xec>
   24224:	e2812004 	add	r2, r1, #4
   24228:	e3a03000 	mov	r3, #0
   2422c:	e1530005 	cmp	r3, r5
   24230:	b5a2a004 	strlt	sl, [r2, #4]!
   24234:	b2833001 	addlt	r3, r3, #1
   24238:	bafffffb 	blt	2422c <Mod+0x114>
   2423c:	e1a00004 	mov	r0, r4
   24240:	ebfffe07 	bl	23a64 <Sub>
   24244:	e1a04000 	mov	r4, r0
   24248:	eaffffb6 	b	24128 <Mod+0x10>
   2424c:	e1a01009 	mov	r1, r9
   24250:	e1a00004 	mov	r0, r4
   24254:	ebfffde2 	bl	239e4 <Cmp>
   24258:	e2501000 	subs	r1, r0, #0
   2425c:	1a000002 	bne	2426c <Mod+0x154>
   24260:	e3a02f83 	mov	r2, #524	; 0x20c
   24264:	e1a00004 	mov	r0, r4
   24268:	eb00d4db 	bl	595dc <memset>
   2426c:	e1a00004 	mov	r0, r4
   24270:	e8bd8ef0 	pop	{r4, r5, r6, r7, r9, sl, fp, pc}

00024274 <Mod_p>:
   24274:	e92d4ef0 	push	{r4, r5, r6, r7, r9, sl, fp, lr}
   24278:	e5909004 	ldr	r9, [r0, #4]
   2427c:	e3590001 	cmp	r9, #1
   24280:	1a000003 	bne	24294 <Mod_p+0x20>
   24284:	e5900008 	ldr	r0, [r0, #8]
   24288:	e733f110 	udiv	r3, r0, r1
   2428c:	e0600391 	mls	r0, r1, r3, r0
   24290:	e8bd8ef0 	pop	{r4, r5, r6, r7, r9, sl, fp, pc}
   24294:	e249b001 	sub	fp, r9, #1
   24298:	e2899002 	add	r9, r9, #2
   2429c:	e1a0a001 	mov	sl, r1
   242a0:	e0809109 	add	r9, r0, r9, lsl #2
   242a4:	e3a00000 	mov	r0, #0
   242a8:	e35b0000 	cmp	fp, #0
   242ac:	ba00000b 	blt	242e0 <Mod_p+0x6c>
   242b0:	e5393004 	ldr	r3, [r9, #-4]!
   242b4:	e3a06000 	mov	r6, #0
   242b8:	e1a07000 	mov	r7, r0
   242bc:	e1a0200a 	mov	r2, sl
   242c0:	e0964003 	adds	r4, r6, r3
   242c4:	e24bb001 	sub	fp, fp, #1
   242c8:	e2a05000 	adc	r5, r0, #0
   242cc:	e1a00004 	mov	r0, r4
   242d0:	e1a01005 	mov	r1, r5
   242d4:	ebfffd8e 	bl	23914 <lldiv>
   242d8:	e060409a 	mls	r0, sl, r0, r4
   242dc:	eafffff1 	b	242a8 <Mod_p+0x34>
   242e0:	e8bd8ef0 	pop	{r4, r5, r6, r7, r9, sl, fp, pc}

000242e4 <Exp_Mod>:
   242e4:	e92d42f0 	push	{r4, r5, r6, r7, r9, lr}
   242e8:	e1a06000 	mov	r6, r0
   242ec:	e1a05001 	mov	r5, r1
   242f0:	e3a00001 	mov	r0, #1
   242f4:	e3a01000 	mov	r1, #0
   242f8:	e1a07002 	mov	r7, r2
   242fc:	ebfffda9 	bl	239a8 <move_p>
   24300:	e2504000 	subs	r4, r0, #0
   24304:	1a000001 	bne	24310 <Exp_Mod+0x2c>
   24308:	e3a00000 	mov	r0, #0
   2430c:	e8bd82f0 	pop	{r4, r5, r6, r7, r9, pc}
   24310:	e1a00006 	mov	r0, r6
   24314:	ebfffd99 	bl	23980 <move>
   24318:	e2506000 	subs	r6, r0, #0
   2431c:	0afffff9 	beq	24308 <Exp_Mod+0x24>
   24320:	e1a00005 	mov	r0, r5
   24324:	ebfffd95 	bl	23980 <move>
   24328:	e2505000 	subs	r5, r0, #0
   2432c:	0afffff5 	beq	24308 <Exp_Mod+0x24>
   24330:	e5953004 	ldr	r3, [r5, #4]
   24334:	e3530001 	cmp	r3, #1
   24338:	e5953008 	ldr	r3, [r5, #8]
   2433c:	0a00001d 	beq	243b8 <Exp_Mod+0xd4>
   24340:	e3130001 	tst	r3, #1
   24344:	0a00000d 	beq	24380 <Exp_Mod+0x9c>
   24348:	e1a00005 	mov	r0, r5
   2434c:	e3a01001 	mov	r1, #1
   24350:	ebfffe2b 	bl	23c04 <Sub_p>
   24354:	e2505000 	subs	r5, r0, #0
   24358:	0affffea 	beq	24308 <Exp_Mod+0x24>
   2435c:	e1a01006 	mov	r1, r6
   24360:	e1a00004 	mov	r0, r4
   24364:	ebfffe55 	bl	23cc0 <Mul>
   24368:	e3500000 	cmp	r0, #0
   2436c:	0affffe5 	beq	24308 <Exp_Mod+0x24>
   24370:	e1a01007 	mov	r1, r7
   24374:	ebffff67 	bl	24118 <Mod>
   24378:	e2504000 	subs	r4, r0, #0
   2437c:	eaffffea 	b	2432c <Exp_Mod+0x48>
   24380:	e1a00005 	mov	r0, r5
   24384:	e3a01002 	mov	r1, #2
   24388:	ebffff32 	bl	24058 <Div_p>
   2438c:	e2505000 	subs	r5, r0, #0
   24390:	0affffdc 	beq	24308 <Exp_Mod+0x24>
   24394:	e1a01006 	mov	r1, r6
   24398:	e1a00006 	mov	r0, r6
   2439c:	ebfffe47 	bl	23cc0 <Mul>
   243a0:	e3500000 	cmp	r0, #0
   243a4:	0affffd7 	beq	24308 <Exp_Mod+0x24>
   243a8:	e1a01007 	mov	r1, r7
   243ac:	ebffff59 	bl	24118 <Mod>
   243b0:	e2506000 	subs	r6, r0, #0
   243b4:	eaffffdc 	b	2432c <Exp_Mod+0x48>
   243b8:	e3530000 	cmp	r3, #0
   243bc:	1affffdf 	bne	24340 <Exp_Mod+0x5c>
   243c0:	e1a00004 	mov	r0, r4
   243c4:	e8bd82f0 	pop	{r4, r5, r6, r7, r9, pc}

000243c8 <InPutFromAddr>:
   243c8:	e92d4070 	push	{r4, r5, r6, lr}
   243cc:	e1a05000 	mov	r5, r0
   243d0:	e1a04001 	mov	r4, r1
   243d4:	ebfffd5c 	bl	2394c <init>
   243d8:	e3500000 	cmp	r0, #0
   243dc:	08bd8070 	popeq	{r4, r5, r6, pc}
   243e0:	e2141003 	ands	r1, r4, #3
   243e4:	e1a03124 	lsr	r3, r4, #2
   243e8:	0a000014 	beq	24440 <InPutFromAddr+0x78>
   243ec:	e2833001 	add	r3, r3, #1
   243f0:	e3530081 	cmp	r3, #129	; 0x81
   243f4:	da000001 	ble	24400 <InPutFromAddr+0x38>
   243f8:	e3a00000 	mov	r0, #0
   243fc:	e8bd8070 	pop	{r4, r5, r6, pc}
   24400:	e5803004 	str	r3, [r0, #4]
   24404:	e1a02181 	lsl	r2, r1, #3
   24408:	e262c020 	rsb	ip, r2, #32
   2440c:	e6952001 	ldr	r2, [r5], r1
   24410:	e3e01000 	mvn	r1, #0
   24414:	e1a02c32 	lsr	r2, r2, ip
   24418:	e5802008 	str	r2, [r0, #8]
   2441c:	e2812001 	add	r2, r1, #1
   24420:	e0455101 	sub	r5, r5, r1, lsl #2
   24424:	e0802102 	add	r2, r0, r2, lsl #2
   24428:	e1510003 	cmp	r1, r3
   2442c:	1795c101 	ldrne	ip, [r5, r1, lsl #2]
   24430:	12811001 	addne	r1, r1, #1
   24434:	15a2c004 	strne	ip, [r2, #4]!
   24438:	1afffffa 	bne	24428 <InPutFromAddr+0x60>
   2443c:	e8bd8070 	pop	{r4, r5, r6, pc}
   24440:	e3530081 	cmp	r3, #129	; 0x81
   24444:	95803004 	strls	r3, [r0, #4]
   24448:	9afffff3 	bls	2441c <InPutFromAddr+0x54>
   2444c:	e1a00001 	mov	r0, r1
   24450:	e8bd8070 	pop	{r4, r5, r6, pc}

00024454 <OutPutToAddr>:
   24454:	e3520000 	cmp	r2, #0
   24458:	02803004 	addeq	r3, r0, #4
   2445c:	0a000012 	beq	244ac <OutPutToAddr+0x58>
   24460:	e5903004 	ldr	r3, [r0, #4]
   24464:	e2432001 	sub	r2, r3, #1
   24468:	e2833001 	add	r3, r3, #1
   2446c:	e0800103 	add	r0, r0, r3, lsl #2
   24470:	e3520000 	cmp	r2, #0
   24474:	e2811004 	add	r1, r1, #4
   24478:	ba00000a 	blt	244a8 <OutPutToAddr+0x54>
   2447c:	e5d03003 	ldrb	r3, [r0, #3]
   24480:	e2422001 	sub	r2, r2, #1
   24484:	e5413004 	strb	r3, [r1, #-4]
   24488:	e1d030b2 	ldrh	r3, [r0, #2]
   2448c:	e5413003 	strb	r3, [r1, #-3]
   24490:	e5903000 	ldr	r3, [r0]
   24494:	e1a03423 	lsr	r3, r3, #8
   24498:	e5413002 	strb	r3, [r1, #-2]
   2449c:	e4103004 	ldr	r3, [r0], #-4
   244a0:	e5413001 	strb	r3, [r1, #-1]
   244a4:	eafffff1 	b	24470 <OutPutToAddr+0x1c>
   244a8:	e12fff1e 	bx	lr
   244ac:	e590c004 	ldr	ip, [r0, #4]
   244b0:	e152000c 	cmp	r2, ip
   244b4:	b5b3c004 	ldrlt	ip, [r3, #4]!
   244b8:	b781c102 	strlt	ip, [r1, r2, lsl #2]
   244bc:	b2822001 	addlt	r2, r2, #1
   244c0:	bafffff9 	blt	244ac <OutPutToAddr+0x58>
   244c4:	e12fff1e 	bx	lr

000244c8 <my_malloc>:
   244c8:	e59f1048 	ldr	r1, [pc, #72]	; 24518 <my_malloc+0x50>
   244cc:	e5913000 	ldr	r3, [r1]
   244d0:	e0802003 	add	r2, r0, r3
   244d4:	e3520402 	cmp	r2, #33554432	; 0x2000000
   244d8:	8a00000c 	bhi	24510 <my_malloc+0x48>
   244dc:	e3530000 	cmp	r3, #0
   244e0:	059f2034 	ldreq	r2, [pc, #52]	; 2451c <my_malloc+0x54>
   244e4:	05812004 	streq	r2, [r1, #4]
   244e8:	e3100003 	tst	r0, #3
   244ec:	13c02003 	bicne	r2, r0, #3
   244f0:	e591c004 	ldr	ip, [r1, #4]
   244f4:	12820004 	addne	r0, r2, #4
   244f8:	e0803003 	add	r3, r0, r3
   244fc:	e5813000 	str	r3, [r1]
   24500:	e080200c 	add	r2, r0, ip
   24504:	e1a0000c 	mov	r0, ip
   24508:	e5812004 	str	r2, [r1, #4]
   2450c:	e12fff1e 	bx	lr
   24510:	e3a00000 	mov	r0, #0
   24514:	e12fff1e 	bx	lr
   24518:	000735f4 	.word	0x000735f4
   2451c:	08000800 	.word	0x08000800

00024520 <my_freeAll>:
   24520:	e59f300c 	ldr	r3, [pc, #12]	; 24534 <my_freeAll+0x14>
   24524:	e3a01000 	mov	r1, #0
   24528:	e59f2008 	ldr	r2, [pc, #8]	; 24538 <my_freeAll+0x18>
   2452c:	e8830006 	stm	r3, {r1, r2}
   24530:	e12fff1e 	bx	lr
   24534:	000735f4 	.word	0x000735f4
   24538:	08000800 	.word	0x08000800

0002453c <do_RSA_sw>:
   2453c:	e92d4070 	push	{r4, r5, r6, lr}
   24540:	e1a05000 	mov	r5, r0
   24544:	e1a06001 	mov	r6, r1
   24548:	e24dd018 	sub	sp, sp, #24
   2454c:	e59f1110 	ldr	r1, [pc, #272]	; 24664 <do_RSA_sw+0x128>
   24550:	e1a04002 	mov	r4, r2
   24554:	e28d0004 	add	r0, sp, #4
   24558:	e3a02013 	mov	r2, #19
   2455c:	eb00d43e 	bl	5965c <memcpy>
   24560:	e59f3100 	ldr	r3, [pc, #256]	; 24668 <do_RSA_sw+0x12c>
   24564:	e59f2100 	ldr	r2, [pc, #256]	; 2466c <do_RSA_sw+0x130>
   24568:	e3a01000 	mov	r1, #0
   2456c:	e1a00005 	mov	r0, r5
   24570:	e8830006 	stm	r3, {r1, r2}
   24574:	e3a01c01 	mov	r1, #256	; 0x100
   24578:	ebffff92 	bl	243c8 <InPutFromAddr>
   2457c:	e2505000 	subs	r5, r0, #0
   24580:	1a000002 	bne	24590 <do_RSA_sw+0x54>
   24584:	ebffffe5 	bl	24520 <my_freeAll>
   24588:	e3a00000 	mov	r0, #0
   2458c:	ea000032 	b	2465c <do_RSA_sw+0x120>
   24590:	e1a00006 	mov	r0, r6
   24594:	e3a01c01 	mov	r1, #256	; 0x100
   24598:	ebffff8a 	bl	243c8 <InPutFromAddr>
   2459c:	e2506000 	subs	r6, r0, #0
   245a0:	0afffff7 	beq	24584 <do_RSA_sw+0x48>
   245a4:	e3a01000 	mov	r1, #0
   245a8:	e59f00c0 	ldr	r0, [pc, #192]	; 24670 <do_RSA_sw+0x134>
   245ac:	ebfffcfd 	bl	239a8 <move_p>
   245b0:	e2501000 	subs	r1, r0, #0
   245b4:	0afffff2 	beq	24584 <do_RSA_sw+0x48>
   245b8:	e1a02006 	mov	r2, r6
   245bc:	e1a00005 	mov	r0, r5
   245c0:	ebffff47 	bl	242e4 <Exp_Mod>
   245c4:	e3500000 	cmp	r0, #0
   245c8:	0affffed 	beq	24584 <do_RSA_sw+0x48>
   245cc:	e3a02001 	mov	r2, #1
   245d0:	e1a01004 	mov	r1, r4
   245d4:	ebffff9e 	bl	24454 <OutPutToAddr>
   245d8:	e5d43000 	ldrb	r3, [r4]
   245dc:	e3530000 	cmp	r3, #0
   245e0:	1a00001b 	bne	24654 <do_RSA_sw+0x118>
   245e4:	e5d43001 	ldrb	r3, [r4, #1]
   245e8:	e3530001 	cmp	r3, #1
   245ec:	1a000018 	bne	24654 <do_RSA_sw+0x118>
   245f0:	e2840002 	add	r0, r4, #2
   245f4:	e5d02000 	ldrb	r2, [r0]
   245f8:	e1a03000 	mov	r3, r0
   245fc:	e1a04000 	mov	r4, r0
   24600:	e2800001 	add	r0, r0, #1
   24604:	e35200ff 	cmp	r2, #255	; 0xff
   24608:	0afffff9 	beq	245f4 <do_RSA_sw+0xb8>
   2460c:	e3520000 	cmp	r2, #0
   24610:	e28dc004 	add	ip, sp, #4
   24614:	01a03000 	moveq	r3, r0
   24618:	01a04003 	moveq	r4, r3
   2461c:	e2641000 	rsb	r1, r4, #0
   24620:	e2840013 	add	r0, r4, #19
   24624:	e0833001 	add	r3, r3, r1
   24628:	e1a02004 	mov	r2, r4
   2462c:	e08c1001 	add	r1, ip, r1
   24630:	e1520000 	cmp	r2, r0
   24634:	0a000005 	beq	24650 <do_RSA_sw+0x114>
   24638:	e7d3e002 	ldrb	lr, [r3, r2]
   2463c:	e7d1c002 	ldrb	ip, [r1, r2]
   24640:	e15e000c 	cmp	lr, ip
   24644:	1a000002 	bne	24654 <do_RSA_sw+0x118>
   24648:	e2822001 	add	r2, r2, #1
   2464c:	eafffff7 	b	24630 <do_RSA_sw+0xf4>
   24650:	e1a04002 	mov	r4, r2
   24654:	ebffffb1 	bl	24520 <my_freeAll>
   24658:	e1a00004 	mov	r0, r4
   2465c:	e28dd018 	add	sp, sp, #24
   24660:	e8bd8070 	pop	{r4, r5, r6, pc}
   24664:	00063da4 	.word	0x00063da4
   24668:	000735f4 	.word	0x000735f4
   2466c:	08000800 	.word	0x08000800
   24670:	00010001 	.word	0x00010001

00024674 <__arch_cpu_init>:
   24674:	e3a00000 	mov	r0, #0
   24678:	e12fff1e 	bx	lr

0002467c <display_banner>:
   2467c:	e92d4010 	push	{r4, lr}
   24680:	e59f100c 	ldr	r1, [pc, #12]	; 24694 <display_banner+0x18>
   24684:	e59f000c 	ldr	r0, [pc, #12]	; 24698 <display_banner+0x1c>
   24688:	eb00258c 	bl	2dcc0 <printf>
   2468c:	e3a00000 	mov	r0, #0
   24690:	e8bd8010 	pop	{r4, pc}
   24694:	00063f6c 	.word	0x00063f6c
   24698:	00066a27 	.word	0x00066a27

0002469c <init_baudrate>:
   2469c:	e92d4010 	push	{r4, lr}
   246a0:	e1a04008 	mov	r4, r8
   246a4:	e59f2014 	ldr	r2, [pc, #20]	; 246c0 <init_baudrate+0x24>
   246a8:	e3a0100a 	mov	r1, #10
   246ac:	e59f0010 	ldr	r0, [pc, #16]	; 246c4 <init_baudrate+0x28>
   246b0:	eb001d46 	bl	2bbd0 <getenv_ulong>
   246b4:	e5840008 	str	r0, [r4, #8]
   246b8:	e3a00000 	mov	r0, #0
   246bc:	e8bd8010 	pop	{r4, pc}
   246c0:	0001c200 	.word	0x0001c200
   246c4:	00066a2e 	.word	0x00066a2e

000246c8 <__coloured_LED_init>:
   246c8:	e12fff1e 	bx	lr

000246cc <__red_led_on>:
   246cc:	e12fff1e 	bx	lr

000246d0 <__red_led_off>:
   246d0:	e12fff1e 	bx	lr

000246d4 <__green_led_on>:
   246d4:	e12fff1e 	bx	lr

000246d8 <__green_led_off>:
   246d8:	e12fff1e 	bx	lr

000246dc <__yellow_led_on>:
   246dc:	e12fff1e 	bx	lr

000246e0 <__yellow_led_off>:
   246e0:	e12fff1e 	bx	lr

000246e4 <__blue_led_on>:
   246e4:	e12fff1e 	bx	lr

000246e8 <__blue_led_off>:
   246e8:	e12fff1e 	bx	lr

000246ec <__dram_init_banksize>:
   246ec:	e5983000 	ldr	r3, [r8]
   246f0:	e3a02000 	mov	r2, #0
   246f4:	e5832018 	str	r2, [r3, #24]
   246f8:	e5982000 	ldr	r2, [r8]
   246fc:	e5983038 	ldr	r3, [r8, #56]	; 0x38
   24700:	e582301c 	str	r3, [r2, #28]
   24704:	e12fff1e 	bx	lr

00024708 <set_shared_memory_for_communication_with_ACPU>:
   24708:	e92d4070 	push	{r4, r5, r6, lr}
   2470c:	e59f4098 	ldr	r4, [pc, #152]	; 247ac <set_shared_memory_for_communication_with_ACPU+0xa4>
   24710:	e3a0209c 	mov	r2, #156	; 0x9c
   24714:	e3a01000 	mov	r1, #0
   24718:	e1a00004 	mov	r0, r4
   2471c:	eb00d3ae 	bl	595dc <memset>
   24720:	e59f2088 	ldr	r2, [pc, #136]	; 247b0 <set_shared_memory_for_communication_with_ACPU+0xa8>
   24724:	e59f3088 	ldr	r3, [pc, #136]	; 247b4 <set_shared_memory_for_communication_with_ACPU+0xac>
   24728:	e884000c 	stm	r4, {r2, r3}
   2472c:	e59f1084 	ldr	r1, [pc, #132]	; 247b8 <set_shared_memory_for_communication_with_ACPU+0xb0>
   24730:	e59f3084 	ldr	r3, [pc, #132]	; 247bc <set_shared_memory_for_communication_with_ACPU+0xb4>
   24734:	e59f0084 	ldr	r0, [pc, #132]	; 247c0 <set_shared_memory_for_communication_with_ACPU+0xb8>
   24738:	e584306c 	str	r3, [r4, #108]	; 0x6c
   2473c:	eb00d40a 	bl	5976c <strstr>
   24740:	e2505000 	subs	r5, r0, #0
   24744:	01a03005 	moveq	r3, r5
   24748:	0a000014 	beq	247a0 <set_shared_memory_for_communication_with_ACPU+0x98>
   2474c:	e2856004 	add	r6, r5, #4
   24750:	e3a01020 	mov	r1, #32
   24754:	e1a00006 	mov	r0, r6
   24758:	eb00d2e1 	bl	592e4 <strchr>
   2475c:	e3500000 	cmp	r0, #0
   24760:	10660000 	rsbne	r0, r6, r0
   24764:	1a000001 	bne	24770 <set_shared_memory_for_communication_with_ACPU+0x68>
   24768:	e1a00006 	mov	r0, r6
   2476c:	eb00d2f1 	bl	59338 <strlen>
   24770:	e0850000 	add	r0, r5, r0
   24774:	e3a02001 	mov	r2, #1
   24778:	e3a03000 	mov	r3, #0
   2477c:	e3a0c00a 	mov	ip, #10
   24780:	e1500005 	cmp	r0, r5
   24784:	0a000005 	beq	247a0 <set_shared_memory_for_communication_with_ACPU+0x98>
   24788:	e5d01003 	ldrb	r1, [r0, #3]
   2478c:	e2400001 	sub	r0, r0, #1
   24790:	e2411030 	sub	r1, r1, #48	; 0x30
   24794:	e0233192 	mla	r3, r2, r1, r3
   24798:	e002029c 	mul	r2, ip, r2
   2479c:	eafffff7 	b	24780 <set_shared_memory_for_communication_with_ACPU+0x78>
   247a0:	e6bf3f33 	rev	r3, r3
   247a4:	e5843070 	str	r3, [r4, #112]	; 0x70
   247a8:	e8bd8070 	pop	{r4, r5, r6, pc}
   247ac:	000735fc 	.word	0x000735fc
   247b0:	007800d8 	.word	0x007800d8
   247b4:	00f80100 	.word	0x00f80100
   247b8:	00066a37 	.word	0x00066a37
   247bc:	006e7673 	.word	0x006e7673
   247c0:	00066a3c 	.word	0x00066a3c

000247c4 <board_init_r>:
   247c4:	e92d4010 	push	{r4, lr}
   247c8:	e1a04000 	mov	r4, r0
   247cc:	e59f0174 	ldr	r0, [pc, #372]	; 24948 <board_init_r+0x184>
   247d0:	eb00252e 	bl	2dc90 <puts>
   247d4:	e1a08004 	mov	r8, r4
   247d8:	e5983004 	ldr	r3, [r8, #4]
   247dc:	e3833001 	orr	r3, r3, #1
   247e0:	e5883004 	str	r3, [r8, #4]
   247e4:	e59f3160 	ldr	r3, [pc, #352]	; 2494c <board_init_r+0x188>
   247e8:	e5932000 	ldr	r2, [r3]
   247ec:	e59f315c 	ldr	r3, [pc, #348]	; 24950 <board_init_r+0x18c>
   247f0:	e583209c 	str	r2, [r3, #156]	; 0x9c
   247f4:	e59f3158 	ldr	r3, [pc, #344]	; 24954 <board_init_r+0x190>
   247f8:	e5933000 	ldr	r3, [r3]
   247fc:	e588304c 	str	r3, [r8, #76]	; 0x4c
   24800:	e598304c 	ldr	r3, [r8, #76]	; 0x4c
   24804:	e1a03823 	lsr	r3, r3, #16
   24808:	e1a03803 	lsl	r3, r3, #16
   2480c:	e588304c 	str	r3, [r8, #76]	; 0x4c
   24810:	e598304c 	ldr	r3, [r8, #76]	; 0x4c
   24814:	e2833801 	add	r3, r3, #65536	; 0x10000
   24818:	e588304c 	str	r3, [r8, #76]	; 0x4c
   2481c:	ebfff3df 	bl	217a0 <enable_caches>
   24820:	eb00f6f2 	bl	623f0 <board_init>
   24824:	e3a01702 	mov	r1, #524288	; 0x80000
   24828:	e5980078 	ldr	r0, [r8, #120]	; 0x78
   2482c:	eb00262f 	bl	2e0f0 <mem_malloc_init>
   24830:	e3a01601 	mov	r1, #1048576	; 0x100000
   24834:	e598007c 	ldr	r0, [r8, #124]	; 0x7c
   24838:	ebfff754 	bl	22590 <mem_malloc_noncache_init>
   2483c:	e59f1114 	ldr	r1, [pc, #276]	; 24958 <board_init_r+0x194>
   24840:	e59f2114 	ldr	r2, [pc, #276]	; 2495c <board_init_r+0x198>
   24844:	e3a00080 	mov	r0, #128	; 0x80
   24848:	e0612002 	rsb	r2, r1, r2
   2484c:	ebfff768 	bl	225f4 <md_memcpy>
   24850:	e59f1108 	ldr	r1, [pc, #264]	; 24960 <board_init_r+0x19c>
   24854:	e59f2108 	ldr	r2, [pc, #264]	; 24964 <board_init_r+0x1a0>
   24858:	e3a00c01 	mov	r0, #256	; 0x100
   2485c:	e0612002 	rsb	r2, r1, r2
   24860:	ebfff763 	bl	225f4 <md_memcpy>
   24864:	e59f10fc 	ldr	r1, [pc, #252]	; 24968 <board_init_r+0x1a4>
   24868:	e59f20fc 	ldr	r2, [pc, #252]	; 2496c <board_init_r+0x1a8>
   2486c:	e3a00c15 	mov	r0, #5376	; 0x1500
   24870:	e0612002 	rsb	r2, r1, r2
   24874:	ebfff75e 	bl	225f4 <md_memcpy>
   24878:	e59f10f0 	ldr	r1, [pc, #240]	; 24970 <board_init_r+0x1ac>
   2487c:	e59f20f0 	ldr	r2, [pc, #240]	; 24974 <board_init_r+0x1b0>
   24880:	e3a00c19 	mov	r0, #6400	; 0x1900
   24884:	e0612002 	rsb	r2, r1, r2
   24888:	ebfff759 	bl	225f4 <md_memcpy>
   2488c:	e59f10e4 	ldr	r1, [pc, #228]	; 24978 <board_init_r+0x1b4>
   24890:	e59f20e4 	ldr	r2, [pc, #228]	; 2497c <board_init_r+0x1b8>
   24894:	e3a00a02 	mov	r0, #8192	; 0x2000
   24898:	e0612002 	rsb	r2, r1, r2
   2489c:	ebfff754 	bl	225f4 <md_memcpy>
   248a0:	e59f30d8 	ldr	r3, [pc, #216]	; 24980 <board_init_r+0x1bc>
   248a4:	e59f20d8 	ldr	r2, [pc, #216]	; 24984 <board_init_r+0x1c0>
   248a8:	e5832080 	str	r2, [r3, #128]	; 0x80
   248ac:	e2833101 	add	r3, r3, #1073741824	; 0x40000000
   248b0:	e59f20d0 	ldr	r2, [pc, #208]	; 24988 <board_init_r+0x1c4>
   248b4:	e583201c 	str	r2, [r3, #28]
   248b8:	ebffff92 	bl	24708 <set_shared_memory_for_communication_with_ACPU>
   248bc:	e59f00c8 	ldr	r0, [pc, #200]	; 2498c <board_init_r+0x1c8>
   248c0:	eb0024f2 	bl	2dc90 <puts>
   248c4:	e5980000 	ldr	r0, [r8]
   248c8:	eb007400 	bl	418d0 <mmc_initialize>
   248cc:	eb007f61 	bl	44658 <bringup_mmc_driver>
   248d0:	e3500000 	cmp	r0, #0
   248d4:	aa000001 	bge	248e0 <board_init_r+0x11c>
   248d8:	e59f00b0 	ldr	r0, [pc, #176]	; 24990 <board_init_r+0x1cc>
   248dc:	eb0024f7 	bl	2dcc0 <printf>
   248e0:	eb009f9d 	bl	4c75c <pcb_get_boot_flash_type>
   248e4:	e59f00a8 	ldr	r0, [pc, #168]	; 24994 <board_init_r+0x1d0>
   248e8:	eb0024e8 	bl	2dc90 <puts>
   248ec:	e59f40a4 	ldr	r4, [pc, #164]	; 24998 <board_init_r+0x1d4>
   248f0:	ebfff61c 	bl	22168 <factory_init>
   248f4:	ebfff7c9 	bl	22820 <get_bootparam>
   248f8:	eb002b04 	bl	2f510 <env_relocate>
   248fc:	e3a00001 	mov	r0, #1
   24900:	eb006ad3 	bl	3f454 <sink_capability_handler>
   24904:	eb0047ab 	bl	367b8 <stdio_init>
   24908:	eb002d5e 	bl	2fe88 <jumptable_init>
   2490c:	eb00257f 	bl	2df10 <console_init_r>
   24910:	eb00f6ca 	bl	62440 <misc_init_r>
   24914:	eb000128 	bl	24dbc <interrupt_init>
   24918:	eb00012e 	bl	24dd8 <enable_interrupts>
   2491c:	e5942000 	ldr	r2, [r4]
   24920:	e3a01010 	mov	r1, #16
   24924:	e59f0070 	ldr	r0, [pc, #112]	; 2499c <board_init_r+0x1d8>
   24928:	eb001ca8 	bl	2bbd0 <getenv_ulong>
   2492c:	e5840000 	str	r0, [r4]
   24930:	e59f0068 	ldr	r0, [pc, #104]	; 249a0 <board_init_r+0x1dc>
   24934:	eb0024d5 	bl	2dc90 <puts>
   24938:	e5980000 	ldr	r0, [r8]
   2493c:	eb009e5c 	bl	4c2b4 <rtl8168_initialize>
   24940:	eb004619 	bl	361ac <main_loop>
   24944:	eafffffd 	b	24940 <board_init_r+0x17c>
   24948:	00066a55 	.word	0x00066a55
   2494c:	00021050 	.word	0x00021050
   24950:	000735fc 	.word	0x000735fc
   24954:	00021094 	.word	0x00021094
	...
   24980:	58007000 	.word	0x58007000
   24984:	002000a0 	.word	0x002000a0
   24988:	a0002000 	.word	0xa0002000
   2498c:	00066a69 	.word	0x00066a69
   24990:	00066a71 	.word	0x00066a71
   24994:	00066a8c 	.word	0x00066a8c
   24998:	00071e4c 	.word	0x00071e4c
   2499c:	00067b0d 	.word	0x00067b0d
   249a0:	00066a96 	.word	0x00066a96

000249a4 <hang>:
   249a4:	e92d4010 	push	{r4, lr}
   249a8:	e59f0004 	ldr	r0, [pc, #4]	; 249b4 <hang+0x10>
   249ac:	eb0024b7 	bl	2dc90 <puts>
   249b0:	eafffffe 	b	249b0 <hang+0xc>
   249b4:	00066a9e 	.word	0x00066a9e

000249b8 <board_init_f>:
   249b8:	e59f2150 	ldr	r2, [pc, #336]	; 24b10 <board_init_f+0x158>
   249bc:	e59f1150 	ldr	r1, [pc, #336]	; 24b14 <board_init_f+0x15c>
   249c0:	e59f3150 	ldr	r3, [pc, #336]	; 24b18 <board_init_f+0x160>
   249c4:	e92d4010 	push	{r4, lr}
   249c8:	e5823000 	str	r3, [r2]
   249cc:	e59f2148 	ldr	r2, [pc, #328]	; 24b1c <board_init_f+0x164>
   249d0:	e5812000 	str	r2, [r1]
   249d4:	e59f1144 	ldr	r1, [pc, #324]	; 24b20 <board_init_f+0x168>
   249d8:	e59f4144 	ldr	r4, [pc, #324]	; 24b24 <board_init_f+0x16c>
   249dc:	e5813000 	str	r3, [r1]
   249e0:	e59f1140 	ldr	r1, [pc, #320]	; 24b28 <board_init_f+0x170>
   249e4:	e5948000 	ldr	r8, [r4]
   249e8:	e5812000 	str	r2, [r1]
   249ec:	e59f2138 	ldr	r2, [pc, #312]	; 24b2c <board_init_f+0x174>
   249f0:	e59f1138 	ldr	r1, [pc, #312]	; 24b30 <board_init_f+0x178>
   249f4:	e5823000 	str	r3, [r2]
   249f8:	e59f2134 	ldr	r2, [pc, #308]	; 24b34 <board_init_f+0x17c>
   249fc:	e5821000 	str	r1, [r2]
   24a00:	e59f2130 	ldr	r2, [pc, #304]	; 24b38 <board_init_f+0x180>
   24a04:	e5823000 	str	r3, [r2]
   24a08:	e59f312c 	ldr	r3, [pc, #300]	; 24b3c <board_init_f+0x184>
   24a0c:	e59f212c 	ldr	r2, [pc, #300]	; 24b40 <board_init_f+0x188>
   24a10:	e5832000 	str	r2, [r3]
   24a14:	e59f2128 	ldr	r2, [pc, #296]	; 24b44 <board_init_f+0x18c>
   24a18:	e59235b0 	ldr	r3, [r2, #1456]	; 0x5b0
   24a1c:	e3c330ff 	bic	r3, r3, #255	; 0xff
   24a20:	e38330a5 	orr	r3, r3, #165	; 0xa5
   24a24:	e58235b0 	str	r3, [r2, #1456]	; 0x5b0
   24a28:	e3a02080 	mov	r2, #128	; 0x80
   24a2c:	e3a01000 	mov	r1, #0
   24a30:	e1a00008 	mov	r0, r8
   24a34:	eb00d2e8 	bl	595dc <memset>
   24a38:	e59f3108 	ldr	r3, [pc, #264]	; 24b48 <board_init_f+0x190>
   24a3c:	e1a05008 	mov	r5, r8
   24a40:	e3a01010 	mov	r1, #16
   24a44:	e59f0100 	ldr	r0, [pc, #256]	; 24b4c <board_init_f+0x194>
   24a48:	e5933000 	ldr	r3, [r3]
   24a4c:	e588303c 	str	r3, [r8, #60]	; 0x3c
   24a50:	e5982050 	ldr	r2, [r8, #80]	; 0x50
   24a54:	eb001c5d 	bl	2bbd0 <getenv_ulong>
   24a58:	e5850050 	str	r0, [r5, #80]	; 0x50
   24a5c:	e59f50ec 	ldr	r5, [pc, #236]	; 24b50 <board_init_f+0x198>
   24a60:	e5b53004 	ldr	r3, [r5, #4]!
   24a64:	e3530000 	cmp	r3, #0
   24a68:	0a000003 	beq	24a7c <board_init_f+0xc4>
   24a6c:	e12fff33 	blx	r3
   24a70:	e3500000 	cmp	r0, #0
   24a74:	0afffff9 	beq	24a60 <board_init_f+0xa8>
   24a78:	ebffffc9 	bl	249a4 <hang>
   24a7c:	e5943000 	ldr	r3, [r4]
   24a80:	e5883040 	str	r3, [r8, #64]	; 0x40
   24a84:	e2831080 	add	r1, r3, #128	; 0x80
   24a88:	e28330a0 	add	r3, r3, #160	; 0xa0
   24a8c:	e5881000 	str	r1, [r8]
   24a90:	e1a03823 	lsr	r3, r3, #16
   24a94:	e59f10b8 	ldr	r1, [pc, #184]	; 24b54 <board_init_f+0x19c>
   24a98:	e5881078 	str	r1, [r8, #120]	; 0x78
   24a9c:	e3a01679 	mov	r1, #126877696	; 0x7900000
   24aa0:	e1a03803 	lsl	r3, r3, #16
   24aa4:	e588107c 	str	r1, [r8, #124]	; 0x7c
   24aa8:	e2834801 	add	r4, r3, #65536	; 0x10000
   24aac:	e2833905 	add	r3, r3, #81920	; 0x14000
   24ab0:	e3530942 	cmp	r3, #1081344	; 0x108000
   24ab4:	9a000002 	bls	24ac4 <board_init_f+0x10c>
   24ab8:	e1a01004 	mov	r1, r4
   24abc:	e59f0094 	ldr	r0, [pc, #148]	; 24b58 <board_init_f+0x1a0>
   24ac0:	eb00247e 	bl	2dcc0 <printf>
   24ac4:	e588404c 	str	r4, [r8, #76]	; 0x4c
   24ac8:	e5982000 	ldr	r2, [r8]
   24acc:	e5983008 	ldr	r3, [r8, #8]
   24ad0:	e5823000 	str	r3, [r2]
   24ad4:	eb00f64e 	bl	62414 <dram_init_banksize>
   24ad8:	e5983000 	ldr	r3, [r8]
   24adc:	e59f0078 	ldr	r0, [pc, #120]	; 24b5c <board_init_f+0x1a4>
   24ae0:	e593401c 	ldr	r4, [r3, #28]
   24ae4:	eb002469 	bl	2dc90 <puts>
   24ae8:	e59f2070 	ldr	r2, [pc, #112]	; 24b60 <board_init_f+0x1a8>
   24aec:	e3a01000 	mov	r1, #0
   24af0:	e1a00004 	mov	r0, r4
   24af4:	eb00c1d0 	bl	5523c <print_size>
   24af8:	e59f3064 	ldr	r3, [pc, #100]	; 24b64 <board_init_f+0x1ac>
   24afc:	e1a01008 	mov	r1, r8
   24b00:	e5932000 	ldr	r2, [r3]
   24b04:	e59f305c 	ldr	r3, [pc, #92]	; 24b68 <board_init_f+0x1b0>
   24b08:	e5930000 	ldr	r0, [r3]
   24b0c:	ebfff16f 	bl	210d0 <relocate_code>
   24b10:	00021060 	.word	0x00021060
   24b14:	00021064 	.word	0x00021064
   24b18:	f9e8d7c6 	.word	0xf9e8d7c6
   24b1c:	0002dcc0 	.word	0x0002dcc0
   24b20:	00021068 	.word	0x00021068
   24b24:	00021058 	.word	0x00021058
   24b28:	0002106c 	.word	0x0002106c
   24b2c:	00021070 	.word	0x00021070
   24b30:	000215d4 	.word	0x000215d4
   24b34:	00021074 	.word	0x00021074
   24b38:	00021078 	.word	0x00021078
   24b3c:	0002107c 	.word	0x0002107c
   24b40:	00021664 	.word	0x00021664
   24b44:	9801b000 	.word	0x9801b000
   24b48:	0002104c 	.word	0x0002104c
   24b4c:	00066ac8 	.word	0x00066ac8
   24b50:	00071c60 	.word	0x00071c60
   24b54:	07880000 	.word	0x07880000
   24b58:	00066ad7 	.word	0x00066ad7
   24b5c:	00066b10 	.word	0x00066b10
   24b60:	0006b8df 	.word	0x0006b8df
   24b64:	00021040 	.word	0x00021040
   24b68:	00021054 	.word	0x00021054

00024b6c <boot_jump_linux>:
   24b6c:	e5983000 	ldr	r3, [r8]
   24b70:	e92d4037 	push	{r0, r1, r2, r4, r5, lr}
   24b74:	e5933004 	ldr	r3, [r3, #4]
   24b78:	e1a04000 	mov	r4, r0
   24b7c:	e5905088 	ldr	r5, [r0, #136]	; 0x88
   24b80:	e59f0064 	ldr	r0, [pc, #100]	; 24bec <boot_jump_linux+0x80>
   24b84:	e58d3004 	str	r3, [sp, #4]
   24b88:	eb001bdb 	bl	2bafc <getenv>
   24b8c:	e3500000 	cmp	r0, #0
   24b90:	0a000005 	beq	24bac <boot_jump_linux+0x40>
   24b94:	e3a01010 	mov	r1, #16
   24b98:	e28d2004 	add	r2, sp, #4
   24b9c:	eb00d7e0 	bl	5ab24 <strict_strtoul>
   24ba0:	e59d1004 	ldr	r1, [sp, #4]
   24ba4:	e59f0044 	ldr	r0, [pc, #68]	; 24bf0 <boot_jump_linux+0x84>
   24ba8:	eb002444 	bl	2dcc0 <printf>
   24bac:	e3a0000f 	mov	r0, #15
   24bb0:	eb004243 	bl	354c4 <__show_boot_progress>
   24bb4:	e59f0038 	ldr	r0, [pc, #56]	; 24bf4 <boot_jump_linux+0x88>
   24bb8:	eb002440 	bl	2dcc0 <printf>
   24bbc:	ebfff2c5 	bl	216d8 <cleanup_before_linux>
   24bc0:	e5943098 	ldr	r3, [r4, #152]	; 0x98
   24bc4:	e59d1004 	ldr	r1, [sp, #4]
   24bc8:	e3a00000 	mov	r0, #0
   24bcc:	e3530000 	cmp	r3, #0
   24bd0:	01a03008 	moveq	r3, r8
   24bd4:	15942094 	ldrne	r2, [r4, #148]	; 0x94
   24bd8:	05933000 	ldreq	r3, [r3]
   24bdc:	05932008 	ldreq	r2, [r3, #8]
   24be0:	e12fff35 	blx	r5
   24be4:	e28dd00c 	add	sp, sp, #12
   24be8:	e8bd8030 	pop	{r4, r5, pc}
   24bec:	00066b18 	.word	0x00066b18
   24bf0:	00066b1f 	.word	0x00066b1f
   24bf4:	00066b44 	.word	0x00066b44

00024bf8 <arch_lmb_reserve>:
   24bf8:	e5982000 	ldr	r2, [r8]
   24bfc:	e5983000 	ldr	r3, [r8]
   24c00:	e1a0100d 	mov	r1, sp
   24c04:	e5922018 	ldr	r2, [r2, #24]
   24c08:	e2411b01 	sub	r1, r1, #1024	; 0x400
   24c0c:	e593301c 	ldr	r3, [r3, #28]
   24c10:	e0832002 	add	r2, r3, r2
   24c14:	e0612002 	rsb	r2, r1, r2
   24c18:	ea00c63b 	b	5650c <lmb_reserve>

00024c1c <setup_revision_tag>:
   24c1c:	e92d4010 	push	{r4, lr}
   24c20:	eb00f60a 	bl	62450 <get_board_rev>
   24c24:	e59f201c 	ldr	r2, [pc, #28]	; 24c48 <setup_revision_tag+0x2c>
   24c28:	e59fc01c 	ldr	ip, [pc, #28]	; 24c4c <setup_revision_tag+0x30>
   24c2c:	e3a01003 	mov	r1, #3
   24c30:	e5923000 	ldr	r3, [r2]
   24c34:	e8831002 	stm	r3, {r1, ip}
   24c38:	e5830008 	str	r0, [r3, #8]
   24c3c:	e283300c 	add	r3, r3, #12
   24c40:	e5823000 	str	r3, [r2]
   24c44:	e8bd8010 	pop	{r4, pc}
   24c48:	000736a0 	.word	0x000736a0
   24c4c:	54410007 	.word	0x54410007

00024c50 <boot_prep_linux>:
   24c50:	e92d4070 	push	{r4, r5, r6, lr}
   24c54:	e1a04000 	mov	r4, r0
   24c58:	e59f00f4 	ldr	r0, [pc, #244]	; 24d54 <boot_prep_linux+0x104>
   24c5c:	eb001ba6 	bl	2bafc <getenv>
   24c60:	e5943098 	ldr	r3, [r4, #152]	; 0x98
   24c64:	e3530000 	cmp	r3, #0
   24c68:	0a000003 	beq	24c7c <boot_prep_linux+0x2c>
   24c6c:	e5940094 	ldr	r0, [r4, #148]	; 0x94
   24c70:	e3a01001 	mov	r1, #1
   24c74:	e8bd4070 	pop	{r4, r5, r6, lr}
   24c78:	ea002e16 	b	304d8 <fdt_chosen>
   24c7c:	e5981000 	ldr	r1, [r8]
   24c80:	e3500000 	cmp	r0, #0
   24c84:	e59f40cc 	ldr	r4, [pc, #204]	; 24d58 <boot_prep_linux+0x108>
   24c88:	e59fe0cc 	ldr	lr, [pc, #204]	; 24d5c <boot_prep_linux+0x10c>
   24c8c:	e5915008 	ldr	r5, [r1, #8]
   24c90:	e3a01005 	mov	r1, #5
   24c94:	e5853008 	str	r3, [r5, #8]
   24c98:	e585300c 	str	r3, [r5, #12]
   24c9c:	e5853010 	str	r3, [r5, #16]
   24ca0:	e2853014 	add	r3, r5, #20
   24ca4:	e8854002 	stm	r5, {r1, lr}
   24ca8:	e5843000 	str	r3, [r4]
   24cac:	e5983000 	ldr	r3, [r8]
   24cb0:	0a000014 	beq	24d08 <boot_prep_linux+0xb8>
   24cb4:	e1a06000 	mov	r6, r0
   24cb8:	e4d03001 	ldrb	r3, [r0], #1
   24cbc:	e3530020 	cmp	r3, #32
   24cc0:	0afffffb 	beq	24cb4 <boot_prep_linux+0x64>
   24cc4:	e3530000 	cmp	r3, #0
   24cc8:	0a00000e 	beq	24d08 <boot_prep_linux+0xb8>
   24ccc:	e59f308c 	ldr	r3, [pc, #140]	; 24d60 <boot_prep_linux+0x110>
   24cd0:	e1a00006 	mov	r0, r6
   24cd4:	e5853018 	str	r3, [r5, #24]
   24cd8:	eb00d196 	bl	59338 <strlen>
   24cdc:	e280000d 	add	r0, r0, #13
   24ce0:	e1a01006 	mov	r1, r6
   24ce4:	e1a00120 	lsr	r0, r0, #2
   24ce8:	e5850014 	str	r0, [r5, #20]
   24cec:	e5940000 	ldr	r0, [r4]
   24cf0:	e2800008 	add	r0, r0, #8
   24cf4:	eb00d131 	bl	591c0 <strcpy>
   24cf8:	e5943000 	ldr	r3, [r4]
   24cfc:	e5932000 	ldr	r2, [r3]
   24d00:	e0833102 	add	r3, r3, r2, lsl #2
   24d04:	e5843000 	str	r3, [r4]
   24d08:	e59f0048 	ldr	r0, [pc, #72]	; 24d58 <boot_prep_linux+0x108>
   24d0c:	ebffffc2 	bl	24c1c <setup_revision_tag>
   24d10:	e5943000 	ldr	r3, [r4]
   24d14:	e5981000 	ldr	r1, [r8]
   24d18:	e3a00004 	mov	r0, #4
   24d1c:	e59fc040 	ldr	ip, [pc, #64]	; 24d64 <boot_prep_linux+0x114>
   24d20:	e1a02008 	mov	r2, r8
   24d24:	e8831001 	stm	r3, {r0, ip}
   24d28:	e5910018 	ldr	r0, [r1, #24]
   24d2c:	e583000c 	str	r0, [r3, #12]
   24d30:	e591101c 	ldr	r1, [r1, #28]
   24d34:	e5831008 	str	r1, [r3, #8]
   24d38:	e2831010 	add	r1, r3, #16
   24d3c:	e5841000 	str	r1, [r4]
   24d40:	e5922000 	ldr	r2, [r2]
   24d44:	e3a02000 	mov	r2, #0
   24d48:	e5832014 	str	r2, [r3, #20]
   24d4c:	e5832010 	str	r2, [r3, #16]
   24d50:	e8bd8070 	pop	{r4, r5, r6, pc}
   24d54:	00066b5a 	.word	0x00066b5a
   24d58:	000736a0 	.word	0x000736a0
   24d5c:	54410001 	.word	0x54410001
   24d60:	54410009 	.word	0x54410009
   24d64:	54410002 	.word	0x54410002

00024d68 <do_bootm_linux>:
   24d68:	e92d4070 	push	{r4, r5, r6, lr}
   24d6c:	e2104030 	ands	r4, r0, #48	; 0x30
   24d70:	13e04000 	mvnne	r4, #0
   24d74:	1a00000e 	bne	24db4 <do_bootm_linux+0x4c>
   24d78:	e2106040 	ands	r6, r0, #64	; 0x40
   24d7c:	e1a05003 	mov	r5, r3
   24d80:	0a000002 	beq	24d90 <do_bootm_linux+0x28>
   24d84:	e1a00003 	mov	r0, r3
   24d88:	ebffffb0 	bl	24c50 <boot_prep_linux>
   24d8c:	ea000008 	b	24db4 <do_bootm_linux+0x4c>
   24d90:	e2104080 	ands	r4, r0, #128	; 0x80
   24d94:	e1a00003 	mov	r0, r3
   24d98:	0a000002 	beq	24da8 <do_bootm_linux+0x40>
   24d9c:	ebffff72 	bl	24b6c <boot_jump_linux>
   24da0:	e1a04006 	mov	r4, r6
   24da4:	ea000002 	b	24db4 <do_bootm_linux+0x4c>
   24da8:	ebffffa8 	bl	24c50 <boot_prep_linux>
   24dac:	e1a00005 	mov	r0, r5
   24db0:	ebffff6d 	bl	24b6c <boot_jump_linux>
   24db4:	e1a00004 	mov	r0, r4
   24db8:	e8bd8070 	pop	{r4, r5, r6, pc}

00024dbc <interrupt_init>:
   24dbc:	e59f2010 	ldr	r2, [pc, #16]	; 24dd4 <interrupt_init+0x18>
   24dc0:	e3a00000 	mov	r0, #0
   24dc4:	e5983040 	ldr	r3, [r8, #64]	; 0x40
   24dc8:	e2833008 	add	r3, r3, #8
   24dcc:	e5823000 	str	r3, [r2]
   24dd0:	e12fff1e 	bx	lr
   24dd4:	0002105c 	.word	0x0002105c

00024dd8 <enable_interrupts>:
   24dd8:	e12fff1e 	bx	lr

00024ddc <disable_interrupts>:
   24ddc:	e3a00000 	mov	r0, #0
   24de0:	e12fff1e 	bx	lr

00024de4 <bad_mode>:
   24de4:	e92d4010 	push	{r4, lr}
   24de8:	e59f0000 	ldr	r0, [pc]	; 24df0 <bad_mode+0xc>
   24dec:	eb00d7d1 	bl	5ad38 <panic>
   24df0:	00066b63 	.word	0x00066b63

00024df4 <show_regs>:
   24df4:	e92d4030 	push	{r4, r5, lr}
   24df8:	e1a04000 	mov	r4, r0
   24dfc:	e3a02080 	mov	r2, #128	; 0x80
   24e00:	e24dd08c 	sub	sp, sp, #140	; 0x8c
   24e04:	e59f10fc 	ldr	r1, [pc, #252]	; 24f08 <show_regs+0x114>
   24e08:	e28d0008 	add	r0, sp, #8
   24e0c:	eb00d212 	bl	5965c <memcpy>
   24e10:	e594302c 	ldr	r3, [r4, #44]	; 0x2c
   24e14:	e58d3004 	str	r3, [sp, #4]
   24e18:	e5943030 	ldr	r3, [r4, #48]	; 0x30
   24e1c:	e58d3000 	str	r3, [sp]
   24e20:	e5942038 	ldr	r2, [r4, #56]	; 0x38
   24e24:	e5943034 	ldr	r3, [r4, #52]	; 0x34
   24e28:	e594103c 	ldr	r1, [r4, #60]	; 0x3c
   24e2c:	e59f00d8 	ldr	r0, [pc, #216]	; 24f0c <show_regs+0x118>
   24e30:	e5945040 	ldr	r5, [r4, #64]	; 0x40
   24e34:	eb0023a1 	bl	2dcc0 <printf>
   24e38:	e5943020 	ldr	r3, [r4, #32]
   24e3c:	e5942024 	ldr	r2, [r4, #36]	; 0x24
   24e40:	e5941028 	ldr	r1, [r4, #40]	; 0x28
   24e44:	e59f00c4 	ldr	r0, [pc, #196]	; 24f10 <show_regs+0x11c>
   24e48:	eb00239c 	bl	2dcc0 <printf>
   24e4c:	e5943010 	ldr	r3, [r4, #16]
   24e50:	e58d3000 	str	r3, [sp]
   24e54:	e5942018 	ldr	r2, [r4, #24]
   24e58:	e5943014 	ldr	r3, [r4, #20]
   24e5c:	e594101c 	ldr	r1, [r4, #28]
   24e60:	e59f00ac 	ldr	r0, [pc, #172]	; 24f14 <show_regs+0x120>
   24e64:	eb002395 	bl	2dcc0 <printf>
   24e68:	e5943000 	ldr	r3, [r4]
   24e6c:	e594100c 	ldr	r1, [r4, #12]
   24e70:	e5942008 	ldr	r2, [r4, #8]
   24e74:	e58d3000 	str	r3, [sp]
   24e78:	e59f0098 	ldr	r0, [pc, #152]	; 24f18 <show_regs+0x124>
   24e7c:	e5943004 	ldr	r3, [r4, #4]
   24e80:	eb00238e 	bl	2dcc0 <printf>
   24e84:	e3550000 	cmp	r5, #0
   24e88:	b3a0104e 	movlt	r1, #78	; 0x4e
   24e8c:	a3a0106e 	movge	r1, #110	; 0x6e
   24e90:	e3150101 	tst	r5, #1073741824	; 0x40000000
   24e94:	13a0205a 	movne	r2, #90	; 0x5a
   24e98:	03a0207a 	moveq	r2, #122	; 0x7a
   24e9c:	e3150202 	tst	r5, #536870912	; 0x20000000
   24ea0:	13a03043 	movne	r3, #67	; 0x43
   24ea4:	03a03063 	moveq	r3, #99	; 0x63
   24ea8:	e3150201 	tst	r5, #268435456	; 0x10000000
   24eac:	13a00056 	movne	r0, #86	; 0x56
   24eb0:	03a00076 	moveq	r0, #118	; 0x76
   24eb4:	e58d0000 	str	r0, [sp]
   24eb8:	e59f005c 	ldr	r0, [pc, #92]	; 24f1c <show_regs+0x128>
   24ebc:	eb00237f 	bl	2dcc0 <printf>
   24ec0:	e5943040 	ldr	r3, [r4, #64]	; 0x40
   24ec4:	e59f2054 	ldr	r2, [pc, #84]	; 24f20 <show_regs+0x12c>
   24ec8:	e28dc088 	add	ip, sp, #136	; 0x88
   24ecc:	e59f0050 	ldr	r0, [pc, #80]	; 24f24 <show_regs+0x130>
   24ed0:	e3130080 	tst	r3, #128	; 0x80
   24ed4:	01a01002 	moveq	r1, r2
   24ed8:	11a01000 	movne	r1, r0
   24edc:	e3130040 	tst	r3, #64	; 0x40
   24ee0:	e203301f 	and	r3, r3, #31
   24ee4:	11a02000 	movne	r2, r0
   24ee8:	e59f0038 	ldr	r0, [pc, #56]	; 24f28 <show_regs+0x134>
   24eec:	e08c3103 	add	r3, ip, r3, lsl #2
   24ef0:	e59fc034 	ldr	ip, [pc, #52]	; 24f2c <show_regs+0x138>
   24ef4:	e58dc000 	str	ip, [sp]
   24ef8:	e5133080 	ldr	r3, [r3, #-128]	; 0x80
   24efc:	eb00236f 	bl	2dcc0 <printf>
   24f00:	e28dd08c 	add	sp, sp, #140	; 0x8c
   24f04:	e8bd8030 	pop	{r4, r5, pc}
   24f08:	00063db8 	.word	0x00063db8
   24f0c:	00066b7a 	.word	0x00066b7a
   24f10:	00066bbf 	.word	0x00066bbf
   24f14:	00066be3 	.word	0x00066be3
   24f18:	00066c13 	.word	0x00066c13
   24f1c:	00066c43 	.word	0x00066c43
   24f20:	0006a4fd 	.word	0x0006a4fd
   24f24:	00066b76 	.word	0x00066b76
   24f28:	00066c53 	.word	0x00066c53
   24f2c:	0007093a 	.word	0x0007093a

00024f30 <do_undefined_instruction>:
   24f30:	e92d4010 	push	{r4, lr}
   24f34:	e1a04000 	mov	r4, r0
   24f38:	e59f000c 	ldr	r0, [pc, #12]	; 24f4c <do_undefined_instruction+0x1c>
   24f3c:	eb00235f 	bl	2dcc0 <printf>
   24f40:	e1a00004 	mov	r0, r4
   24f44:	ebffffaa 	bl	24df4 <show_regs>
   24f48:	ebffffa5 	bl	24de4 <bad_mode>
   24f4c:	00066c72 	.word	0x00066c72

00024f50 <do_software_interrupt>:
   24f50:	e92d4010 	push	{r4, lr}
   24f54:	e1a04000 	mov	r4, r0
   24f58:	e59f000c 	ldr	r0, [pc, #12]	; 24f6c <do_software_interrupt+0x1c>
   24f5c:	eb002357 	bl	2dcc0 <printf>
   24f60:	e1a00004 	mov	r0, r4
   24f64:	ebffffa2 	bl	24df4 <show_regs>
   24f68:	ebffff9d 	bl	24de4 <bad_mode>
   24f6c:	00066c89 	.word	0x00066c89

00024f70 <do_prefetch_abort>:
   24f70:	e92d4010 	push	{r4, lr}
   24f74:	e1a04000 	mov	r4, r0
   24f78:	e59f000c 	ldr	r0, [pc, #12]	; 24f8c <do_prefetch_abort+0x1c>
   24f7c:	eb00234f 	bl	2dcc0 <printf>
   24f80:	e1a00004 	mov	r0, r4
   24f84:	ebffff9a 	bl	24df4 <show_regs>
   24f88:	ebffff95 	bl	24de4 <bad_mode>
   24f8c:	00066c9d 	.word	0x00066c9d

00024f90 <do_data_abort>:
   24f90:	e92d4010 	push	{r4, lr}
   24f94:	e1a04000 	mov	r4, r0
   24f98:	e59f000c 	ldr	r0, [pc, #12]	; 24fac <do_data_abort+0x1c>
   24f9c:	eb002347 	bl	2dcc0 <printf>
   24fa0:	e1a00004 	mov	r0, r4
   24fa4:	ebffff92 	bl	24df4 <show_regs>
   24fa8:	ebffff8d 	bl	24de4 <bad_mode>
   24fac:	00066cad 	.word	0x00066cad

00024fb0 <do_not_used>:
   24fb0:	e92d4010 	push	{r4, lr}
   24fb4:	e1a04000 	mov	r4, r0
   24fb8:	e59f000c 	ldr	r0, [pc, #12]	; 24fcc <do_not_used+0x1c>
   24fbc:	eb00233f 	bl	2dcc0 <printf>
   24fc0:	e1a00004 	mov	r0, r4
   24fc4:	ebffff8a 	bl	24df4 <show_regs>
   24fc8:	ebffff85 	bl	24de4 <bad_mode>
   24fcc:	00066cb9 	.word	0x00066cb9

00024fd0 <do_fiq>:
   24fd0:	e92d4010 	push	{r4, lr}
   24fd4:	e1a04000 	mov	r4, r0
   24fd8:	e59f000c 	ldr	r0, [pc, #12]	; 24fec <do_fiq+0x1c>
   24fdc:	eb002337 	bl	2dcc0 <printf>
   24fe0:	e1a00004 	mov	r0, r4
   24fe4:	ebffff82 	bl	24df4 <show_regs>
   24fe8:	ebffff7d 	bl	24de4 <bad_mode>
   24fec:	00066cc3 	.word	0x00066cc3

00024ff0 <do_irq>:
   24ff0:	e92d4010 	push	{r4, lr}
   24ff4:	e1a04000 	mov	r4, r0
   24ff8:	e59f000c 	ldr	r0, [pc, #12]	; 2500c <do_irq+0x1c>
   24ffc:	eb00232f 	bl	2dcc0 <printf>
   25000:	e1a00004 	mov	r0, r4
   25004:	ebffff7a 	bl	24df4 <show_regs>
   25008:	ebffff75 	bl	24de4 <bad_mode>
   2500c:	00066cc8 	.word	0x00066cc8

00025010 <do_reset>:
   25010:	e92d4010 	push	{r4, lr}
   25014:	e59f0030 	ldr	r0, [pc, #48]	; 2504c <do_reset+0x3c>
   25018:	eb00231c 	bl	2dc90 <puts>
   2501c:	e30c0350 	movw	r0, #50000	; 0xc350
   25020:	eb00d3a6 	bl	59ec0 <udelay>
   25024:	ebffff6c 	bl	24ddc <disable_interrupts>
   25028:	e59f3020 	ldr	r3, [pc, #32]	; 25050 <do_reset+0x40>
   2502c:	e3a020a5 	mov	r2, #165	; 0xa5
   25030:	e3a00000 	mov	r0, #0
   25034:	e5832680 	str	r2, [r3, #1664]	; 0x680
   25038:	e3a02001 	mov	r2, #1
   2503c:	e5832684 	str	r2, [r3, #1668]	; 0x684
   25040:	e583268c 	str	r2, [r3, #1676]	; 0x68c
   25044:	e5830680 	str	r0, [r3, #1664]	; 0x680
   25048:	e8bd8010 	pop	{r4, pc}
   2504c:	00066dc7 	.word	0x00066dc7
   25050:	98007000 	.word	0x98007000

00025054 <__flush_cache>:
   25054:	e12fff1e 	bx	lr

00025058 <__flush_dcache_all>:
   25058:	e3e01000 	mvn	r1, #0
   2505c:	e3a00000 	mov	r0, #0
   25060:	eafff17f 	b	21664 <flush_cache>

00025064 <__enable_caches>:
   25064:	e59f0000 	ldr	r0, [pc]	; 2506c <__enable_caches+0x8>
   25068:	ea002308 	b	2dc90 <puts>
   2506c:	00066dd6 	.word	0x00066dd6

00025070 <cp_delay>:
   25070:	e24dd008 	sub	sp, sp, #8
   25074:	e3a03000 	mov	r3, #0
   25078:	e58d3004 	str	r3, [sp, #4]
   2507c:	e59d3004 	ldr	r3, [sp, #4]
   25080:	e3530063 	cmp	r3, #99	; 0x63
   25084:	ca000003 	bgt	25098 <cp_delay+0x28>
   25088:	e1a00000 	nop			; (mov r0, r0)
   2508c:	e59d3004 	ldr	r3, [sp, #4]
   25090:	e2833001 	add	r3, r3, #1
   25094:	eafffff7 	b	25078 <cp_delay+0x8>
   25098:	e28dd008 	add	sp, sp, #8
   2509c:	e12fff1e 	bx	lr

000250a0 <__arm_init_before_mmu>:
   250a0:	e12fff1e 	bx	lr

000250a4 <cache_enable>:
   250a4:	e92d4070 	push	{r4, r5, r6, lr}
   250a8:	ee114f30 	mrc	15, 0, r4, cr1, cr0, {1}
   250ac:	e3140040 	tst	r4, #64	; 0x40
   250b0:	e1a05000 	mov	r5, r0
   250b4:	1a000002 	bne	250c4 <cache_enable+0x20>
   250b8:	ebffffec 	bl	25070 <cp_delay>
   250bc:	e3844040 	orr	r4, r4, #64	; 0x40
   250c0:	ee014f30 	mcr	15, 0, r4, cr1, cr0, {1}
   250c4:	e3550004 	cmp	r5, #4
   250c8:	1a000030 	bne	25190 <cache_enable+0xec>
   250cc:	ee113f10 	mrc	15, 0, r3, cr1, cr0, {0}
   250d0:	e2134001 	ands	r4, r3, #1
   250d4:	1a00002d 	bne	25190 <cache_enable+0xec>
   250d8:	e598604c 	ldr	r6, [r8, #76]	; 0x4c
   250dc:	ebfff147 	bl	21600 <arm_init_before_mmu>
   250e0:	e1a03004 	mov	r3, r4
   250e4:	e1a02a03 	lsl	r2, r3, #20
   250e8:	e3822ec1 	orr	r2, r2, #3088	; 0xc10
   250ec:	e3822002 	orr	r2, r2, #2
   250f0:	e7862103 	str	r2, [r6, r3, lsl #2]
   250f4:	e2833001 	add	r3, r3, #1
   250f8:	e3530a01 	cmp	r3, #4096	; 0x1000
   250fc:	1afffff8 	bne	250e4 <cache_enable+0x40>
   25100:	e598e04c 	ldr	lr, [r8, #76]	; 0x4c
   25104:	e1a00008 	mov	r0, r8
   25108:	e5981000 	ldr	r1, [r8]
   2510c:	e5913018 	ldr	r3, [r1, #24]
   25110:	e591101c 	ldr	r1, [r1, #28]
   25114:	e1a02a23 	lsr	r2, r3, #20
   25118:	e0833001 	add	r3, r3, r1
   2511c:	e1a01a23 	lsr	r1, r3, #20
   25120:	e1520001 	cmp	r2, r1
   25124:	2a000011 	bcs	25170 <cache_enable+0xcc>
   25128:	e3520d26 	cmp	r2, #2432	; 0x980
   2512c:	e1a03a02 	lsl	r3, r2, #20
   25130:	0a00000b 	beq	25164 <cache_enable+0xc0>
   25134:	e283c467 	add	ip, r3, #1728053248	; 0x67000000
   25138:	e28cc60f 	add	ip, ip, #15728640	; 0xf00000
   2513c:	e35c0401 	cmp	ip, #16777216	; 0x1000000
   25140:	9a000007 	bls	25164 <cache_enable+0xc0>
   25144:	e590c07c 	ldr	ip, [r0, #124]	; 0x7c
   25148:	e1520a2c 	cmp	r2, ip, lsr #20
   2514c:	13833ec1 	orrne	r3, r3, #3088	; 0xc10
   25150:	1383300e 	orrne	r3, r3, #14
   25154:	0a000002 	beq	25164 <cache_enable+0xc0>
   25158:	e78e3102 	str	r3, [lr, r2, lsl #2]
   2515c:	e2822001 	add	r2, r2, #1
   25160:	eaffffee 	b	25120 <cache_enable+0x7c>
   25164:	e3833ec1 	orr	r3, r3, #3088	; 0xc10
   25168:	e3833006 	orr	r3, r3, #6
   2516c:	eafffff9 	b	25158 <cache_enable+0xb4>
   25170:	ee026f10 	mcr	15, 0, r6, cr2, cr0, {0}
   25174:	e3e03000 	mvn	r3, #0
   25178:	ee033f10 	mcr	15, 0, r3, cr3, cr0, {0}
   2517c:	ebffffbb 	bl	25070 <cp_delay>
   25180:	ee114f10 	mrc	15, 0, r4, cr1, cr0, {0}
   25184:	e3844001 	orr	r4, r4, #1
   25188:	ee014f10 	mcr	15, 0, r4, cr1, cr0, {0}
   2518c:	f57ff06f 	isb	sy
   25190:	ee114f10 	mrc	15, 0, r4, cr1, cr0, {0}
   25194:	ebffffb5 	bl	25070 <cp_delay>
   25198:	e1845005 	orr	r5, r4, r5
   2519c:	ee015f10 	mcr	15, 0, r5, cr1, cr0, {0}
   251a0:	e8bd8070 	pop	{r4, r5, r6, pc}

000251a4 <icache_enable>:
   251a4:	e3a00a01 	mov	r0, #4096	; 0x1000
   251a8:	eaffffbd 	b	250a4 <cache_enable>

000251ac <icache_disable>:
   251ac:	e92d4010 	push	{r4, lr}
   251b0:	ee114f10 	mrc	15, 0, r4, cr1, cr0, {0}
   251b4:	ebffffad 	bl	25070 <cp_delay>
   251b8:	e3c44a01 	bic	r4, r4, #4096	; 0x1000
   251bc:	ee014f10 	mcr	15, 0, r4, cr1, cr0, {0}
   251c0:	e8bd8010 	pop	{r4, pc}

000251c4 <icache_status>:
   251c4:	ee110f10 	mrc	15, 0, r0, cr1, cr0, {0}
   251c8:	e7e00650 	ubfx	r0, r0, #12, #1
   251cc:	e12fff1e 	bx	lr

000251d0 <dcache_enable>:
   251d0:	e92d4010 	push	{r4, lr}
   251d4:	e59f001c 	ldr	r0, [pc, #28]	; 251f8 <dcache_enable+0x28>
   251d8:	eb0022ac 	bl	2dc90 <puts>
   251dc:	e3a01001 	mov	r1, #1
   251e0:	e598207c 	ldr	r2, [r8, #124]	; 0x7c
   251e4:	e59f0010 	ldr	r0, [pc, #16]	; 251fc <dcache_enable+0x2c>
   251e8:	eb0022b4 	bl	2dcc0 <printf>
   251ec:	e3a00004 	mov	r0, #4
   251f0:	e8bd4010 	pop	{r4, lr}
   251f4:	eaffffaa 	b	250a4 <cache_enable>
   251f8:	00066df3 	.word	0x00066df3
   251fc:	00066e03 	.word	0x00066e03

00025200 <dcache_disable>:
   25200:	e92d4070 	push	{r4, r5, r6, lr}
   25204:	ee115f10 	mrc	15, 0, r5, cr1, cr0, {0}
   25208:	e3150004 	tst	r5, #4
   2520c:	08bd8070 	popeq	{r4, r5, r6, pc}
   25210:	ebfff553 	bl	22764 <__asm_flush_aarch32_dcache_all>
   25214:	e3e04005 	mvn	r4, #5
   25218:	e0055004 	and	r5, r5, r4
   2521c:	ee015f10 	mcr	15, 0, r5, cr1, cr0, {0}
   25220:	f57ff04f 	dsb	sy
   25224:	e8bd8070 	pop	{r4, r5, r6, pc}

00025228 <dcache_status>:
   25228:	ee110f10 	mrc	15, 0, r0, cr1, cr0, {0}
   2522c:	e7e00150 	ubfx	r0, r0, #2, #1
   25230:	e12fff1e 	bx	lr

00025234 <do_bdinfo_pll>:
   25234:	e92d4030 	push	{r4, r5, lr}
   25238:	e3a04326 	mov	r4, #-1744830464	; 0x98000000
   2523c:	e59f02e4 	ldr	r0, [pc, #740]	; 25528 <do_bdinfo_pll+0x2f4>
   25240:	e24dd044 	sub	sp, sp, #68	; 0x44
   25244:	e5945030 	ldr	r5, [r4, #48]	; 0x30
   25248:	eb00229c 	bl	2dcc0 <printf>
   2524c:	e5942504 	ldr	r2, [r4, #1284]	; 0x504
   25250:	e3a0401b 	mov	r4, #27
   25254:	e59f12d0 	ldr	r1, [pc, #720]	; 2552c <do_bdinfo_pll+0x2f8>
   25258:	e1a0000d 	mov	r0, sp
   2525c:	e7e735d2 	ubfx	r3, r2, #11, #8
   25260:	e7ea2052 	ubfx	r2, r2, #0, #11
   25264:	e0020294 	mul	r2, r4, r2
   25268:	e1a025a2 	lsr	r2, r2, #11
   2526c:	e0242394 	mla	r4, r4, r3, r2
   25270:	e2844051 	add	r4, r4, #81	; 0x51
   25274:	e1a02004 	mov	r2, r4
   25278:	eb00d6a4 	bl	5ad10 <sprintf>
   2527c:	e1a0100d 	mov	r1, sp
   25280:	e59f02a8 	ldr	r0, [pc, #680]	; 25530 <do_bdinfo_pll+0x2fc>
   25284:	eb00228d 	bl	2dcc0 <printf>
   25288:	e7e133d5 	ubfx	r3, r5, #7, #2
   2528c:	e3530003 	cmp	r3, #3
   25290:	01a02124 	lsreq	r2, r4, #2
   25294:	0a000002 	beq	252a4 <do_bdinfo_pll+0x70>
   25298:	e3530002 	cmp	r3, #2
   2529c:	01a020a4 	lsreq	r2, r4, #1
   252a0:	11a02004 	movne	r2, r4
   252a4:	e59f1280 	ldr	r1, [pc, #640]	; 2552c <do_bdinfo_pll+0x2f8>
   252a8:	e1a0000d 	mov	r0, sp
   252ac:	eb00d697 	bl	5ad10 <sprintf>
   252b0:	e1a0100d 	mov	r1, sp
   252b4:	e59f0278 	ldr	r0, [pc, #632]	; 25534 <do_bdinfo_pll+0x300>
   252b8:	e3a0401b 	mov	r4, #27
   252bc:	eb00227f 	bl	2dcc0 <printf>
   252c0:	e3a03326 	mov	r3, #-1744830464	; 0x98000000
   252c4:	e59f1260 	ldr	r1, [pc, #608]	; 2552c <do_bdinfo_pll+0x2f8>
   252c8:	e1a0000d 	mov	r0, sp
   252cc:	e7e151d5 	ubfx	r5, r5, #3, #2
   252d0:	e59325c4 	ldr	r2, [r3, #1476]	; 0x5c4
   252d4:	e7e735d2 	ubfx	r3, r2, #11, #8
   252d8:	e7ea2052 	ubfx	r2, r2, #0, #11
   252dc:	e0020294 	mul	r2, r4, r2
   252e0:	e1a025a2 	lsr	r2, r2, #11
   252e4:	e0242394 	mla	r4, r4, r3, r2
   252e8:	e2844051 	add	r4, r4, #81	; 0x51
   252ec:	e1a02004 	mov	r2, r4
   252f0:	eb00d686 	bl	5ad10 <sprintf>
   252f4:	e1a0100d 	mov	r1, sp
   252f8:	e59f0238 	ldr	r0, [pc, #568]	; 25538 <do_bdinfo_pll+0x304>
   252fc:	eb00226f 	bl	2dcc0 <printf>
   25300:	e3550003 	cmp	r5, #3
   25304:	01a02124 	lsreq	r2, r4, #2
   25308:	0a000002 	beq	25318 <do_bdinfo_pll+0xe4>
   2530c:	e3550002 	cmp	r5, #2
   25310:	01a020a4 	lsreq	r2, r4, #1
   25314:	11a02004 	movne	r2, r4
   25318:	e3a05326 	mov	r5, #-1744830464	; 0x98000000
   2531c:	e59f1208 	ldr	r1, [pc, #520]	; 2552c <do_bdinfo_pll+0x2f8>
   25320:	e1a0000d 	mov	r0, sp
   25324:	e3a0401b 	mov	r4, #27
   25328:	eb00d678 	bl	5ad10 <sprintf>
   2532c:	e1a0100d 	mov	r1, sp
   25330:	e59f0204 	ldr	r0, [pc, #516]	; 2553c <do_bdinfo_pll+0x308>
   25334:	eb002261 	bl	2dcc0 <printf>
   25338:	e5953114 	ldr	r3, [r5, #276]	; 0x114
   2533c:	e1a0000d 	mov	r0, sp
   25340:	e7e72253 	ubfx	r2, r3, #4, #8
   25344:	e0020294 	mul	r2, r4, r2
   25348:	e2821036 	add	r1, r2, #54	; 0x36
   2534c:	e7e12653 	ubfx	r2, r3, #12, #2
   25350:	e2822001 	add	r2, r2, #1
   25354:	e7e138d3 	ubfx	r3, r3, #17, #2
   25358:	e2833001 	add	r3, r3, #1
   2535c:	e732f211 	udiv	r2, r1, r2
   25360:	e59f11c4 	ldr	r1, [pc, #452]	; 2552c <do_bdinfo_pll+0x2f8>
   25364:	e732f312 	udiv	r2, r2, r3
   25368:	eb00d668 	bl	5ad10 <sprintf>
   2536c:	e1a0100d 	mov	r1, sp
   25370:	e59f01c8 	ldr	r0, [pc, #456]	; 25540 <do_bdinfo_pll+0x30c>
   25374:	eb002251 	bl	2dcc0 <printf>
   25378:	e59531d0 	ldr	r3, [r5, #464]	; 0x1d0
   2537c:	e1a0000d 	mov	r0, sp
   25380:	e7e72253 	ubfx	r2, r3, #4, #8
   25384:	e0020294 	mul	r2, r4, r2
   25388:	e2821036 	add	r1, r2, #54	; 0x36
   2538c:	e7e12653 	ubfx	r2, r3, #12, #2
   25390:	e2822001 	add	r2, r2, #1
   25394:	e7e138d3 	ubfx	r3, r3, #17, #2
   25398:	e2833001 	add	r3, r3, #1
   2539c:	e732f211 	udiv	r2, r1, r2
   253a0:	e59f1184 	ldr	r1, [pc, #388]	; 2552c <do_bdinfo_pll+0x2f8>
   253a4:	e732f312 	udiv	r2, r2, r3
   253a8:	eb00d658 	bl	5ad10 <sprintf>
   253ac:	e1a0100d 	mov	r1, sp
   253b0:	e59f018c 	ldr	r0, [pc, #396]	; 25544 <do_bdinfo_pll+0x310>
   253b4:	eb002241 	bl	2dcc0 <printf>
   253b8:	e5953564 	ldr	r3, [r5, #1380]	; 0x564
   253bc:	e1a0000d 	mov	r0, sp
   253c0:	e7e219d3 	ubfx	r1, r3, #19, #3
   253c4:	e7ea2053 	ubfx	r2, r3, #0, #11
   253c8:	e7e735d3 	ubfx	r3, r3, #11, #8
   253cc:	e2811001 	add	r1, r1, #1
   253d0:	e2833003 	add	r3, r3, #3
   253d4:	e0020294 	mul	r2, r4, r2
   253d8:	e0030193 	mul	r3, r3, r1
   253dc:	e0020291 	mul	r2, r1, r2
   253e0:	e0030394 	mul	r3, r4, r3
   253e4:	e59f1140 	ldr	r1, [pc, #320]	; 2552c <do_bdinfo_pll+0x2f8>
   253e8:	e08325a2 	add	r2, r3, r2, lsr #11
   253ec:	eb00d647 	bl	5ad10 <sprintf>
   253f0:	e1a0100d 	mov	r1, sp
   253f4:	e59f014c 	ldr	r0, [pc, #332]	; 25548 <do_bdinfo_pll+0x314>
   253f8:	eb002230 	bl	2dcc0 <printf>
   253fc:	e5953584 	ldr	r3, [r5, #1412]	; 0x584
   25400:	e1a0000d 	mov	r0, sp
   25404:	e7e219d3 	ubfx	r1, r3, #19, #3
   25408:	e7ea2053 	ubfx	r2, r3, #0, #11
   2540c:	e7e735d3 	ubfx	r3, r3, #11, #8
   25410:	e2811001 	add	r1, r1, #1
   25414:	e2833003 	add	r3, r3, #3
   25418:	e0020294 	mul	r2, r4, r2
   2541c:	e0030193 	mul	r3, r3, r1
   25420:	e0020291 	mul	r2, r1, r2
   25424:	e0030394 	mul	r3, r4, r3
   25428:	e59f10fc 	ldr	r1, [pc, #252]	; 2552c <do_bdinfo_pll+0x2f8>
   2542c:	e08325a2 	add	r2, r3, r2, lsr #11
   25430:	eb00d636 	bl	5ad10 <sprintf>
   25434:	e1a0100d 	mov	r1, sp
   25438:	e59f010c 	ldr	r0, [pc, #268]	; 2554c <do_bdinfo_pll+0x318>
   2543c:	eb00221f 	bl	2dcc0 <printf>
   25440:	e5953524 	ldr	r3, [r5, #1316]	; 0x524
   25444:	e59f10e0 	ldr	r1, [pc, #224]	; 2552c <do_bdinfo_pll+0x2f8>
   25448:	e1a0000d 	mov	r0, sp
   2544c:	e7e725d3 	ubfx	r2, r3, #11, #8
   25450:	e7ea3053 	ubfx	r3, r3, #0, #11
   25454:	e0030394 	mul	r3, r4, r3
   25458:	e1a035a3 	lsr	r3, r3, #11
   2545c:	e0223294 	mla	r2, r4, r2, r3
   25460:	e2822051 	add	r2, r2, #81	; 0x51
   25464:	eb00d629 	bl	5ad10 <sprintf>
   25468:	e1a0100d 	mov	r1, sp
   2546c:	e59f00dc 	ldr	r0, [pc, #220]	; 25550 <do_bdinfo_pll+0x31c>
   25470:	eb002212 	bl	2dcc0 <printf>
   25474:	e5953544 	ldr	r3, [r5, #1348]	; 0x544
   25478:	e59f10ac 	ldr	r1, [pc, #172]	; 2552c <do_bdinfo_pll+0x2f8>
   2547c:	e1a0000d 	mov	r0, sp
   25480:	e7e725d3 	ubfx	r2, r3, #11, #8
   25484:	e7ea3053 	ubfx	r3, r3, #0, #11
   25488:	e0030394 	mul	r3, r4, r3
   2548c:	e1a035a3 	lsr	r3, r3, #11
   25490:	e0223294 	mla	r2, r4, r2, r3
   25494:	e2822051 	add	r2, r2, #81	; 0x51
   25498:	eb00d61c 	bl	5ad10 <sprintf>
   2549c:	e1a0100d 	mov	r1, sp
   254a0:	e59f00ac 	ldr	r0, [pc, #172]	; 25554 <do_bdinfo_pll+0x320>
   254a4:	eb002205 	bl	2dcc0 <printf>
   254a8:	e59535a4 	ldr	r3, [r5, #1444]	; 0x5a4
   254ac:	e59f1078 	ldr	r1, [pc, #120]	; 2552c <do_bdinfo_pll+0x2f8>
   254b0:	e1a0000d 	mov	r0, sp
   254b4:	e7e725d3 	ubfx	r2, r3, #11, #8
   254b8:	e7ea3053 	ubfx	r3, r3, #0, #11
   254bc:	e0030394 	mul	r3, r4, r3
   254c0:	e1a035a3 	lsr	r3, r3, #11
   254c4:	e0223294 	mla	r2, r4, r2, r3
   254c8:	e2822051 	add	r2, r2, #81	; 0x51
   254cc:	eb00d60f 	bl	5ad10 <sprintf>
   254d0:	e1a0100d 	mov	r1, sp
   254d4:	e59f007c 	ldr	r0, [pc, #124]	; 25558 <do_bdinfo_pll+0x324>
   254d8:	eb0021f8 	bl	2dcc0 <printf>
   254dc:	e5951260 	ldr	r1, [r5, #608]	; 0x260
   254e0:	e1a0000d 	mov	r0, sp
   254e4:	e7e73251 	ubfx	r3, r1, #4, #8
   254e8:	e7e128d1 	ubfx	r2, r1, #17, #2
   254ec:	e2822001 	add	r2, r2, #1
   254f0:	e0040394 	mul	r4, r4, r3
   254f4:	e2843036 	add	r3, r4, #54	; 0x36
   254f8:	e7e14651 	ubfx	r4, r1, #12, #2
   254fc:	e2844001 	add	r4, r4, #1
   25500:	e59f1024 	ldr	r1, [pc, #36]	; 2552c <do_bdinfo_pll+0x2f8>
   25504:	e734f413 	udiv	r4, r3, r4
   25508:	e732f214 	udiv	r2, r4, r2
   2550c:	eb00d5ff 	bl	5ad10 <sprintf>
   25510:	e1a0100d 	mov	r1, sp
   25514:	e59f0040 	ldr	r0, [pc, #64]	; 2555c <do_bdinfo_pll+0x328>
   25518:	eb0021e8 	bl	2dcc0 <printf>
   2551c:	e3a00000 	mov	r0, #0
   25520:	e28dd044 	add	sp, sp, #68	; 0x44
   25524:	e8bd8030 	pop	{r4, r5, pc}
   25528:	00066e23 	.word	0x00066e23
   2552c:	00066e37 	.word	0x00066e37
   25530:	00066e3f 	.word	0x00066e3f
   25534:	00066e51 	.word	0x00066e51
   25538:	00066e63 	.word	0x00066e63
   2553c:	00066e75 	.word	0x00066e75
   25540:	00066e87 	.word	0x00066e87
   25544:	00066e9a 	.word	0x00066e9a
   25548:	00066ead 	.word	0x00066ead
   2554c:	00066ebf 	.word	0x00066ebf
   25550:	00066ed1 	.word	0x00066ed1
   25554:	00066ee2 	.word	0x00066ee2
   25558:	00066ef5 	.word	0x00066ef5
   2555c:	00066f07 	.word	0x00066f07

00025560 <get_ddr_size>:
   25560:	e3500001 	cmp	r0, #1
   25564:	e1a02000 	mov	r2, r0
   25568:	e92d4010 	push	{r4, lr}
   2556c:	9a000004 	bls	25584 <get_ddr_size+0x24>
   25570:	e59f1098 	ldr	r1, [pc, #152]	; 25610 <get_ddr_size+0xb0>
   25574:	e59f0098 	ldr	r0, [pc, #152]	; 25614 <get_ddr_size+0xb4>
   25578:	eb0021d0 	bl	2dcc0 <printf>
   2557c:	e3a00000 	mov	r0, #0
   25580:	e8bd8010 	pop	{r4, pc}
   25584:	e59f008c 	ldr	r0, [pc, #140]	; 25618 <get_ddr_size+0xb8>
   25588:	e3520000 	cmp	r2, #0
   2558c:	e59f3088 	ldr	r3, [pc, #136]	; 2561c <get_ddr_size+0xbc>
   25590:	01a02000 	moveq	r2, r0
   25594:	11a02003 	movne	r2, r3
   25598:	e5922000 	ldr	r2, [r2]
   2559c:	e7e32cd2 	ubfx	r2, r2, #25, #4
   255a0:	e3520008 	cmp	r2, #8
   255a4:	979ff102 	ldrls	pc, [pc, r2, lsl #2]
   255a8:	ea000010 	b	255f0 <get_ddr_size+0x90>
   255ac:	00025604 	.word	0x00025604
   255b0:	000255d0 	.word	0x000255d0
   255b4:	000255d8 	.word	0x000255d8
   255b8:	000255f0 	.word	0x000255f0
   255bc:	000255e0 	.word	0x000255e0
   255c0:	000255f0 	.word	0x000255f0
   255c4:	000255f0 	.word	0x000255f0
   255c8:	000255f0 	.word	0x000255f0
   255cc:	000255e8 	.word	0x000255e8
   255d0:	e3a00b02 	mov	r0, #2048	; 0x800
   255d4:	ea00000b 	b	25608 <get_ddr_size+0xa8>
   255d8:	e3a00c02 	mov	r0, #512	; 0x200
   255dc:	ea000009 	b	25608 <get_ddr_size+0xa8>
   255e0:	e3a00a01 	mov	r0, #4096	; 0x1000
   255e4:	ea000007 	b	25608 <get_ddr_size+0xa8>
   255e8:	e3a00a02 	mov	r0, #8192	; 0x2000
   255ec:	ea000005 	b	25608 <get_ddr_size+0xa8>
   255f0:	e59f1018 	ldr	r1, [pc, #24]	; 25610 <get_ddr_size+0xb0>
   255f4:	e59f0024 	ldr	r0, [pc, #36]	; 25620 <get_ddr_size+0xc0>
   255f8:	eb0021b0 	bl	2dcc0 <printf>
   255fc:	e3a00000 	mov	r0, #0
   25600:	ea000000 	b	25608 <get_ddr_size+0xa8>
   25604:	e3a00b01 	mov	r0, #1024	; 0x400
   25608:	e1a001a0 	lsr	r0, r0, #3
   2560c:	e8bd8010 	pop	{r4, pc}
   25610:	00063e38 	.word	0x00063e38
   25614:	00066f1a 	.word	0x00066f1a
   25618:	b8008004 	.word	0xb8008004
   2561c:	b8003004 	.word	0xb8003004
   25620:	00066f3c 	.word	0x00066f3c

00025624 <get_ddr_num>:
   25624:	e59f3010 	ldr	r3, [pc, #16]	; 2563c <get_ddr_num+0x18>
   25628:	e5933004 	ldr	r3, [r3, #4]
   2562c:	e3130702 	tst	r3, #524288	; 0x80000
   25630:	13a00002 	movne	r0, #2
   25634:	03a00001 	moveq	r0, #1
   25638:	e12fff1e 	bx	lr
   2563c:	b8008000 	.word	0xb8008000

00025640 <get_accessible_ddr_size>:
   25640:	e59f307c 	ldr	r3, [pc, #124]	; 256c4 <get_accessible_ddr_size+0x84>
   25644:	e92d4010 	push	{r4, lr}
   25648:	e5932740 	ldr	r2, [r3, #1856]	; 0x740
   2564c:	e1a04000 	mov	r4, r0
   25650:	e202203f 	and	r2, r2, #63	; 0x3f
   25654:	e3520004 	cmp	r2, #4
   25658:	03a00b02 	moveq	r0, #2048	; 0x800
   2565c:	0a000014 	beq	256b4 <get_accessible_ddr_size+0x74>
   25660:	8a000006 	bhi	25680 <get_accessible_ddr_size+0x40>
   25664:	e3520001 	cmp	r2, #1
   25668:	03a00c02 	moveq	r0, #512	; 0x200
   2566c:	0a000010 	beq	256b4 <get_accessible_ddr_size+0x74>
   25670:	e3520002 	cmp	r2, #2
   25674:	03a00b01 	moveq	r0, #1024	; 0x400
   25678:	0a00000d 	beq	256b4 <get_accessible_ddr_size+0x74>
   2567c:	ea000008 	b	256a4 <get_accessible_ddr_size+0x64>
   25680:	e3520010 	cmp	r2, #16
   25684:	03a00a02 	moveq	r0, #8192	; 0x2000
   25688:	0a000009 	beq	256b4 <get_accessible_ddr_size+0x74>
   2568c:	e3520020 	cmp	r2, #32
   25690:	03a00901 	moveq	r0, #16384	; 0x4000
   25694:	0a000006 	beq	256b4 <get_accessible_ddr_size+0x74>
   25698:	e3520008 	cmp	r2, #8
   2569c:	03a00a01 	moveq	r0, #4096	; 0x1000
   256a0:	0a000003 	beq	256b4 <get_accessible_ddr_size+0x74>
   256a4:	e59f101c 	ldr	r1, [pc, #28]	; 256c8 <get_accessible_ddr_size+0x88>
   256a8:	e59f001c 	ldr	r0, [pc, #28]	; 256cc <get_accessible_ddr_size+0x8c>
   256ac:	eb002183 	bl	2dcc0 <printf>
   256b0:	e3a00000 	mov	r0, #0
   256b4:	e1a001a0 	lsr	r0, r0, #3
   256b8:	e3540002 	cmp	r4, #2
   256bc:	11a00a00 	lslne	r0, r0, #20
   256c0:	e8bd8010 	pop	{r4, pc}
   256c4:	98008000 	.word	0x98008000
   256c8:	00063e45 	.word	0x00063e45
   256cc:	00066f3c 	.word	0x00066f3c

000256d0 <do_bdinfo_ddr>:
   256d0:	e92d40f0 	push	{r4, r5, r6, r7, lr}
   256d4:	e59f0138 	ldr	r0, [pc, #312]	; 25814 <do_bdinfo_ddr+0x144>
   256d8:	e24dd024 	sub	sp, sp, #36	; 0x24
   256dc:	e59f5134 	ldr	r5, [pc, #308]	; 25818 <do_bdinfo_ddr+0x148>
   256e0:	eb002176 	bl	2dcc0 <printf>
   256e4:	e59f3130 	ldr	r3, [pc, #304]	; 2581c <do_bdinfo_ddr+0x14c>
   256e8:	e3a01000 	mov	r1, #0
   256ec:	e3a0200c 	mov	r2, #12
   256f0:	e28d0014 	add	r0, sp, #20
   256f4:	e5934028 	ldr	r4, [r3, #40]	; 0x28
   256f8:	e58d1010 	str	r1, [sp, #16]
   256fc:	eb00cfb6 	bl	595dc <memset>
   25700:	e7e74454 	ubfx	r4, r4, #8, #8
   25704:	e3540024 	cmp	r4, #36	; 0x24
   25708:	8a000009 	bhi	25734 <do_bdinfo_ddr+0x64>
   2570c:	e3540020 	cmp	r4, #32
   25710:	2a00000d 	bcs	2574c <do_bdinfo_ddr+0x7c>
   25714:	e354001a 	cmp	r4, #26
   25718:	8a00000d 	bhi	25754 <do_bdinfo_ddr+0x84>
   2571c:	e3540016 	cmp	r4, #22
   25720:	2a00000d 	bcs	2575c <do_bdinfo_ddr+0x8c>
   25724:	e3540015 	cmp	r4, #21
   25728:	03003535 	movweq	r3, #1333	; 0x535
   2572c:	0a00000b 	beq	25760 <do_bdinfo_ddr+0x90>
   25730:	ea00000c 	b	25768 <do_bdinfo_ddr+0x98>
   25734:	e3540029 	cmp	r4, #41	; 0x29
   25738:	e3a03e96 	mov	r3, #2400	; 0x960
   2573c:	e5853000 	str	r3, [r5]
   25740:	859f10d8 	ldrhi	r1, [pc, #216]	; 25820 <do_bdinfo_ddr+0x150>
   25744:	8a00000a 	bhi	25774 <do_bdinfo_ddr+0xa4>
   25748:	ea00000b 	b	2577c <do_bdinfo_ddr+0xac>
   2574c:	e3003855 	movw	r3, #2133	; 0x855
   25750:	ea000002 	b	25760 <do_bdinfo_ddr+0x90>
   25754:	e300374a 	movw	r3, #1866	; 0x74a
   25758:	ea000000 	b	25760 <do_bdinfo_ddr+0x90>
   2575c:	e3a03d19 	mov	r3, #1600	; 0x640
   25760:	e5853000 	str	r3, [r5]
   25764:	ea000004 	b	2577c <do_bdinfo_ddr+0xac>
   25768:	e59f10b4 	ldr	r1, [pc, #180]	; 25824 <do_bdinfo_ddr+0x154>
   2576c:	e3003535 	movw	r3, #1333	; 0x535
   25770:	e5853000 	str	r3, [r5]
   25774:	e28d0010 	add	r0, sp, #16
   25778:	eb00ce90 	bl	591c0 <strcpy>
   2577c:	e5952000 	ldr	r2, [r5]
   25780:	e28d1010 	add	r1, sp, #16
   25784:	e1a03004 	mov	r3, r4
   25788:	e59f0098 	ldr	r0, [pc, #152]	; 25828 <do_bdinfo_ddr+0x158>
   2578c:	eb00214b 	bl	2dcc0 <printf>
   25790:	e3a00000 	mov	r0, #0
   25794:	ebffff71 	bl	25560 <get_ddr_size>
   25798:	e1a06000 	mov	r6, r0
   2579c:	ebffffa0 	bl	25624 <get_ddr_num>
   257a0:	e1a07000 	mov	r7, r0
   257a4:	e3a00002 	mov	r0, #2
   257a8:	ebffffa4 	bl	25640 <get_accessible_ddr_size>
   257ac:	e1a04000 	mov	r4, r0
   257b0:	ebffff9b 	bl	25624 <get_ddr_num>
   257b4:	e1a05000 	mov	r5, r0
   257b8:	e3a00000 	mov	r0, #0
   257bc:	ebffff67 	bl	25560 <get_ddr_size>
   257c0:	e59fc064 	ldr	ip, [pc, #100]	; 2582c <do_bdinfo_ddr+0x15c>
   257c4:	e0000095 	mul	r0, r5, r0
   257c8:	e59f3060 	ldr	r3, [pc, #96]	; 25830 <do_bdinfo_ddr+0x160>
   257cc:	e1540000 	cmp	r4, r0
   257d0:	e3a00002 	mov	r0, #2
   257d4:	11a04003 	movne	r4, r3
   257d8:	01a0400c 	moveq	r4, ip
   257dc:	ebffff97 	bl	25640 <get_accessible_ddr_size>
   257e0:	e59f304c 	ldr	r3, [pc, #76]	; 25834 <do_bdinfo_ddr+0x164>
   257e4:	e58d3008 	str	r3, [sp, #8]
   257e8:	e1a02007 	mov	r2, r7
   257ec:	e2433e73 	sub	r3, r3, #1840	; 0x730
   257f0:	e1a01006 	mov	r1, r6
   257f4:	e24332c6 	sub	r3, r3, #1610612748	; 0x6000000c
   257f8:	e88d0009 	stm	sp, {r0, r3}
   257fc:	e1a03004 	mov	r3, r4
   25800:	e59f0030 	ldr	r0, [pc, #48]	; 25838 <do_bdinfo_ddr+0x168>
   25804:	eb00212d 	bl	2dcc0 <printf>
   25808:	e3a00000 	mov	r0, #0
   2580c:	e28dd024 	add	sp, sp, #36	; 0x24
   25810:	e8bd80f0 	pop	{r4, r5, r6, r7, pc}
   25814:	00066f74 	.word	0x00066f74
   25818:	000736c0 	.word	0x000736c0
   2581c:	9800e000 	.word	0x9800e000
   25820:	00066f88 	.word	0x00066f88
   25824:	00066f8d 	.word	0x00066f8d
   25828:	00066f93 	.word	0x00066f93
   2582c:	00066f72 	.word	0x00066f72
   25830:	00066f71 	.word	0x00066f71
   25834:	18008740 	.word	0x18008740
   25838:	00066fb4 	.word	0x00066fb4

0002583c <do_bdinfo>:
   2583c:	e92d4030 	push	{r4, r5, lr}
   25840:	e3520002 	cmp	r2, #2
   25844:	e1a05003 	mov	r5, r3
   25848:	e24dd014 	sub	sp, sp, #20
   2584c:	e5984000 	ldr	r4, [r8]
   25850:	1a000017 	bne	258b4 <do_bdinfo+0x78>
   25854:	e59f111c 	ldr	r1, [pc, #284]	; 25978 <do_bdinfo+0x13c>
   25858:	e5950004 	ldr	r0, [r5, #4]
   2585c:	eb00ce87 	bl	59280 <strcmp>
   25860:	e3500000 	cmp	r0, #0
   25864:	1a000001 	bne	25870 <do_bdinfo+0x34>
   25868:	ebfffe71 	bl	25234 <do_bdinfo_pll>
   2586c:	ea000005 	b	25888 <do_bdinfo+0x4c>
   25870:	e59f1104 	ldr	r1, [pc, #260]	; 2597c <do_bdinfo+0x140>
   25874:	e5950004 	ldr	r0, [r5, #4]
   25878:	eb00ce80 	bl	59280 <strcmp>
   2587c:	e3500000 	cmp	r0, #0
   25880:	1a000002 	bne	25890 <do_bdinfo+0x54>
   25884:	ebffff91 	bl	256d0 <do_bdinfo_ddr>
   25888:	e1a04000 	mov	r4, r0
   2588c:	ea000036 	b	2596c <do_bdinfo+0x130>
   25890:	e59f10e8 	ldr	r1, [pc, #232]	; 25980 <do_bdinfo+0x144>
   25894:	e5950004 	ldr	r0, [r5, #4]
   25898:	eb00ce78 	bl	59280 <strcmp>
   2589c:	e2504000 	subs	r4, r0, #0
   258a0:	13e04000 	mvnne	r4, #0
   258a4:	1a000030 	bne	2596c <do_bdinfo+0x130>
   258a8:	e59f00d4 	ldr	r0, [pc, #212]	; 25984 <do_bdinfo+0x148>
   258ac:	eb002103 	bl	2dcc0 <printf>
   258b0:	ea00002d 	b	2596c <do_bdinfo+0x130>
   258b4:	e5942004 	ldr	r2, [r4, #4]
   258b8:	e59f10c8 	ldr	r1, [pc, #200]	; 25988 <do_bdinfo+0x14c>
   258bc:	e59f00c8 	ldr	r0, [pc, #200]	; 2598c <do_bdinfo+0x150>
   258c0:	eb0020fe 	bl	2dcc0 <printf>
   258c4:	e5942008 	ldr	r2, [r4, #8]
   258c8:	e59f10c0 	ldr	r1, [pc, #192]	; 25990 <do_bdinfo+0x154>
   258cc:	e59f00b8 	ldr	r0, [pc, #184]	; 2598c <do_bdinfo+0x150>
   258d0:	eb0020fa 	bl	2dcc0 <printf>
   258d4:	e3a02000 	mov	r2, #0
   258d8:	e59f10b4 	ldr	r1, [pc, #180]	; 25994 <do_bdinfo+0x158>
   258dc:	e59f00a8 	ldr	r0, [pc, #168]	; 2598c <do_bdinfo+0x150>
   258e0:	eb0020f6 	bl	2dcc0 <printf>
   258e4:	e5942018 	ldr	r2, [r4, #24]
   258e8:	e59f10a8 	ldr	r1, [pc, #168]	; 25998 <do_bdinfo+0x15c>
   258ec:	e59f0098 	ldr	r0, [pc, #152]	; 2598c <do_bdinfo+0x150>
   258f0:	eb0020f2 	bl	2dcc0 <printf>
   258f4:	e594201c 	ldr	r2, [r4, #28]
   258f8:	e59f109c 	ldr	r1, [pc, #156]	; 2599c <do_bdinfo+0x160>
   258fc:	e59f0088 	ldr	r0, [pc, #136]	; 2598c <do_bdinfo+0x150>
   25900:	eb0020ee 	bl	2dcc0 <printf>
   25904:	e59f1094 	ldr	r1, [pc, #148]	; 259a0 <do_bdinfo+0x164>
   25908:	e28d0004 	add	r0, sp, #4
   2590c:	eb00ce2b 	bl	591c0 <strcpy>
   25910:	e28d0004 	add	r0, sp, #4
   25914:	eb001878 	bl	2bafc <getenv>
   25918:	e3500000 	cmp	r0, #0
   2591c:	e59f2080 	ldr	r2, [pc, #128]	; 259a4 <do_bdinfo+0x168>
   25920:	e28d1004 	add	r1, sp, #4
   25924:	11a02000 	movne	r2, r0
   25928:	e59f0078 	ldr	r0, [pc, #120]	; 259a8 <do_bdinfo+0x16c>
   2592c:	eb0020e3 	bl	2dcc0 <printf>
   25930:	e59f0074 	ldr	r0, [pc, #116]	; 259ac <do_bdinfo+0x170>
   25934:	eb001870 	bl	2bafc <getenv>
   25938:	e1a01000 	mov	r1, r0
   2593c:	e59f006c 	ldr	r0, [pc, #108]	; 259b0 <do_bdinfo+0x174>
   25940:	eb0020de 	bl	2dcc0 <printf>
   25944:	e5941000 	ldr	r1, [r4]
   25948:	e59f0064 	ldr	r0, [pc, #100]	; 259b4 <do_bdinfo+0x178>
   2594c:	e3a04000 	mov	r4, #0
   25950:	eb0020da 	bl	2dcc0 <printf>
   25954:	e59f105c 	ldr	r1, [pc, #92]	; 259b8 <do_bdinfo+0x17c>
   25958:	e598204c 	ldr	r2, [r8, #76]	; 0x4c
   2595c:	e59f0028 	ldr	r0, [pc, #40]	; 2598c <do_bdinfo+0x150>
   25960:	eb0020d6 	bl	2dcc0 <printf>
   25964:	ebfffe32 	bl	25234 <do_bdinfo_pll>
   25968:	ebffff58 	bl	256d0 <do_bdinfo_ddr>
   2596c:	e1a00004 	mov	r0, r4
   25970:	e28dd014 	add	sp, sp, #20
   25974:	e8bd8030 	pop	{r4, r5, pc}
   25978:	00066ffc 	.word	0x00066ffc
   2597c:	000670a2 	.word	0x000670a2
   25980:	00067000 	.word	0x00067000
   25984:	00067004 	.word	0x00067004
   25988:	00067018 	.word	0x00067018
   2598c:	00067024 	.word	0x00067024
   25990:	00067034 	.word	0x00067034
   25994:	00067040 	.word	0x00067040
   25998:	0006704a 	.word	0x0006704a
   2599c:	00067053 	.word	0x00067053
   259a0:	0006705b 	.word	0x0006705b
   259a4:	00066ff2 	.word	0x00066ff2
   259a8:	00067063 	.word	0x00067063
   259ac:	0006706e 	.word	0x0006706e
   259b0:	00067075 	.word	0x00067075
   259b4:	00067087 	.word	0x00067087
   259b8:	0006709d 	.word	0x0006709d

000259bc <rtk_call_bootm>:
   259bc:	e92d4010 	push	{r4, lr}
   259c0:	e59f0020 	ldr	r0, [pc, #32]	; 259e8 <rtk_call_bootm+0x2c>
   259c4:	eb00184c 	bl	2bafc <getenv>
   259c8:	e59f001c 	ldr	r0, [pc, #28]	; 259ec <rtk_call_bootm+0x30>
   259cc:	eb00184a 	bl	2bafc <getenv>
   259d0:	e3a02000 	mov	r2, #0
   259d4:	e3e01000 	mvn	r1, #0
   259d8:	e59f0010 	ldr	r0, [pc, #16]	; 259f0 <rtk_call_bootm+0x34>
   259dc:	eb0041db 	bl	36150 <run_command_list>
   259e0:	e3a00001 	mov	r0, #1
   259e4:	e8bd8010 	pop	{r4, pc}
   259e8:	00067130 	.word	0x00067130
   259ec:	00067140 	.word	0x00067140
   259f0:	0006714d 	.word	0x0006714d

000259f4 <reset_shared_memory>:
   259f4:	e59f0018 	ldr	r0, [pc, #24]	; 25a14 <reset_shared_memory+0x20>
   259f8:	e59f3018 	ldr	r3, [pc, #24]	; 25a18 <reset_shared_memory+0x24>
   259fc:	e5902000 	ldr	r2, [r0]
   25a00:	e1520003 	cmp	r2, r3
   25a04:	012fff1e 	bxeq	lr
   25a08:	e3a02050 	mov	r2, #80	; 0x50
   25a0c:	e3a01000 	mov	r1, #0
   25a10:	ea00cef1 	b	595dc <memset>
   25a14:	0001f600 	.word	0x0001f600
   25a18:	4b545224 	.word	0x4b545224

00025a1c <boot_rescue_from_usb>:
   25a1c:	e92d4030 	push	{r4, r5, lr}
   25a20:	e3a01000 	mov	r1, #0
   25a24:	e59f01e8 	ldr	r0, [pc, #488]	; 25c14 <boot_rescue_from_usb+0x1f8>
   25a28:	e24dd084 	sub	sp, sp, #132	; 0x84
   25a2c:	eb0041c5 	bl	36148 <run_command>
   25a30:	e3a01000 	mov	r1, #0
   25a34:	e59f01dc 	ldr	r0, [pc, #476]	; 25c18 <boot_rescue_from_usb+0x1fc>
   25a38:	eb0041c2 	bl	36148 <run_command>
   25a3c:	e2505000 	subs	r5, r0, #0
   25a40:	0a000002 	beq	25a50 <boot_rescue_from_usb+0x34>
   25a44:	e59f01d0 	ldr	r0, [pc, #464]	; 25c1c <boot_rescue_from_usb+0x200>
   25a48:	eb00209c 	bl	2dcc0 <printf>
   25a4c:	ea00006d 	b	25c08 <boot_rescue_from_usb+0x1ec>
   25a50:	e59f01c8 	ldr	r0, [pc, #456]	; 25c20 <boot_rescue_from_usb+0x204>
   25a54:	eb001828 	bl	2bafc <getenv>
   25a58:	e59f41c4 	ldr	r4, [pc, #452]	; 25c24 <boot_rescue_from_usb+0x208>
   25a5c:	e3500000 	cmp	r0, #0
   25a60:	11a04000 	movne	r4, r0
   25a64:	e59f01bc 	ldr	r0, [pc, #444]	; 25c28 <boot_rescue_from_usb+0x20c>
   25a68:	eb001823 	bl	2bafc <getenv>
   25a6c:	e1a03004 	mov	r3, r4
   25a70:	e1a02000 	mov	r2, r0
   25a74:	e59f11b0 	ldr	r1, [pc, #432]	; 25c2c <boot_rescue_from_usb+0x210>
   25a78:	e1a0000d 	mov	r0, sp
   25a7c:	eb00d4a3 	bl	5ad10 <sprintf>
   25a80:	e1a01005 	mov	r1, r5
   25a84:	e1a0000d 	mov	r0, sp
   25a88:	eb0041ae 	bl	36148 <run_command>
   25a8c:	e2505000 	subs	r5, r0, #0
   25a90:	1a000059 	bne	25bfc <boot_rescue_from_usb+0x1e0>
   25a94:	e59f018c 	ldr	r0, [pc, #396]	; 25c28 <boot_rescue_from_usb+0x20c>
   25a98:	eb001817 	bl	2bafc <getenv>
   25a9c:	e1a01004 	mov	r1, r4
   25aa0:	e1a02000 	mov	r2, r0
   25aa4:	e59f0184 	ldr	r0, [pc, #388]	; 25c30 <boot_rescue_from_usb+0x214>
   25aa8:	eb002084 	bl	2dcc0 <printf>
   25aac:	e59f0180 	ldr	r0, [pc, #384]	; 25c34 <boot_rescue_from_usb+0x218>
   25ab0:	eb001811 	bl	2bafc <getenv>
   25ab4:	e59f417c 	ldr	r4, [pc, #380]	; 25c38 <boot_rescue_from_usb+0x21c>
   25ab8:	e3500000 	cmp	r0, #0
   25abc:	11a04000 	movne	r4, r0
   25ac0:	e59f0174 	ldr	r0, [pc, #372]	; 25c3c <boot_rescue_from_usb+0x220>
   25ac4:	eb00180c 	bl	2bafc <getenv>
   25ac8:	e1a03004 	mov	r3, r4
   25acc:	e1a02000 	mov	r2, r0
   25ad0:	e59f1154 	ldr	r1, [pc, #340]	; 25c2c <boot_rescue_from_usb+0x210>
   25ad4:	e1a0000d 	mov	r0, sp
   25ad8:	eb00d48c 	bl	5ad10 <sprintf>
   25adc:	e1a01005 	mov	r1, r5
   25ae0:	e1a0000d 	mov	r0, sp
   25ae4:	eb004197 	bl	36148 <run_command>
   25ae8:	e2505000 	subs	r5, r0, #0
   25aec:	1a000042 	bne	25bfc <boot_rescue_from_usb+0x1e0>
   25af0:	e59f0144 	ldr	r0, [pc, #324]	; 25c3c <boot_rescue_from_usb+0x220>
   25af4:	eb001800 	bl	2bafc <getenv>
   25af8:	e1a01004 	mov	r1, r4
   25afc:	e1a02000 	mov	r2, r0
   25b00:	e59f0128 	ldr	r0, [pc, #296]	; 25c30 <boot_rescue_from_usb+0x214>
   25b04:	eb00206d 	bl	2dcc0 <printf>
   25b08:	e59f0130 	ldr	r0, [pc, #304]	; 25c40 <boot_rescue_from_usb+0x224>
   25b0c:	eb0017fa 	bl	2bafc <getenv>
   25b10:	e59f412c 	ldr	r4, [pc, #300]	; 25c44 <boot_rescue_from_usb+0x228>
   25b14:	e3500000 	cmp	r0, #0
   25b18:	11a04000 	movne	r4, r0
   25b1c:	e59f0124 	ldr	r0, [pc, #292]	; 25c48 <boot_rescue_from_usb+0x22c>
   25b20:	eb0017f5 	bl	2bafc <getenv>
   25b24:	e1a03004 	mov	r3, r4
   25b28:	e1a02000 	mov	r2, r0
   25b2c:	e59f10f8 	ldr	r1, [pc, #248]	; 25c2c <boot_rescue_from_usb+0x210>
   25b30:	e1a0000d 	mov	r0, sp
   25b34:	eb00d475 	bl	5ad10 <sprintf>
   25b38:	e1a01005 	mov	r1, r5
   25b3c:	e1a0000d 	mov	r0, sp
   25b40:	eb004180 	bl	36148 <run_command>
   25b44:	e2505000 	subs	r5, r0, #0
   25b48:	1a00002b 	bne	25bfc <boot_rescue_from_usb+0x1e0>
   25b4c:	e59f00f4 	ldr	r0, [pc, #244]	; 25c48 <boot_rescue_from_usb+0x22c>
   25b50:	eb0017e9 	bl	2bafc <getenv>
   25b54:	e1a01004 	mov	r1, r4
   25b58:	e1a02000 	mov	r2, r0
   25b5c:	e59f00cc 	ldr	r0, [pc, #204]	; 25c30 <boot_rescue_from_usb+0x214>
   25b60:	eb002056 	bl	2dcc0 <printf>
   25b64:	e59f00e0 	ldr	r0, [pc, #224]	; 25c4c <boot_rescue_from_usb+0x230>
   25b68:	eb0017e3 	bl	2bafc <getenv>
   25b6c:	e59f40dc 	ldr	r4, [pc, #220]	; 25c50 <boot_rescue_from_usb+0x234>
   25b70:	e3500000 	cmp	r0, #0
   25b74:	e3a0261b 	mov	r2, #28311552	; 0x1b00000
   25b78:	11a04000 	movne	r4, r0
   25b7c:	e59f10d0 	ldr	r1, [pc, #208]	; 25c54 <boot_rescue_from_usb+0x238>
   25b80:	e1a03004 	mov	r3, r4
   25b84:	e1a0000d 	mov	r0, sp
   25b88:	eb00d460 	bl	5ad10 <sprintf>
   25b8c:	e1a01005 	mov	r1, r5
   25b90:	e1a0000d 	mov	r0, sp
   25b94:	eb00416b 	bl	36148 <run_command>
   25b98:	e2505000 	subs	r5, r0, #0
   25b9c:	1a000007 	bne	25bc0 <boot_rescue_from_usb+0x1a4>
   25ba0:	e1a01004 	mov	r1, r4
   25ba4:	e3a0261b 	mov	r2, #28311552	; 0x1b00000
   25ba8:	e59f00a8 	ldr	r0, [pc, #168]	; 25c58 <boot_rescue_from_usb+0x23c>
   25bac:	eb002043 	bl	2dcc0 <printf>
   25bb0:	e1a01005 	mov	r1, r5
   25bb4:	e59f00a0 	ldr	r0, [pc, #160]	; 25c5c <boot_rescue_from_usb+0x240>
   25bb8:	eb004162 	bl	36148 <run_command>
   25bbc:	ea000002 	b	25bcc <boot_rescue_from_usb+0x1b0>
   25bc0:	e1a01004 	mov	r1, r4
   25bc4:	e59f0094 	ldr	r0, [pc, #148]	; 25c60 <boot_rescue_from_usb+0x244>
   25bc8:	eb00203c 	bl	2dcc0 <printf>
   25bcc:	e59f3090 	ldr	r3, [pc, #144]	; 25c64 <boot_rescue_from_usb+0x248>
   25bd0:	e3a02001 	mov	r2, #1
   25bd4:	e59f008c 	ldr	r0, [pc, #140]	; 25c68 <boot_rescue_from_usb+0x24c>
   25bd8:	e5832000 	str	r2, [r3]
   25bdc:	eb0017c6 	bl	2bafc <getenv>
   25be0:	e3500000 	cmp	r0, #0
   25be4:	0a000002 	beq	25bf4 <boot_rescue_from_usb+0x1d8>
   25be8:	e59f107c 	ldr	r1, [pc, #124]	; 25c6c <boot_rescue_from_usb+0x250>
   25bec:	e59f0074 	ldr	r0, [pc, #116]	; 25c68 <boot_rescue_from_usb+0x24c>
   25bf0:	eb00174d 	bl	2b92c <setenv>
   25bf4:	ebffff70 	bl	259bc <rtk_call_bootm>
   25bf8:	ea000003 	b	25c0c <boot_rescue_from_usb+0x1f0>
   25bfc:	e1a01004 	mov	r1, r4
   25c00:	e59f0058 	ldr	r0, [pc, #88]	; 25c60 <boot_rescue_from_usb+0x244>
   25c04:	eb00202d 	bl	2dcc0 <printf>
   25c08:	e3a00004 	mov	r0, #4
   25c0c:	e28dd084 	add	sp, sp, #132	; 0x84
   25c10:	e8bd8030 	pop	{r4, r5, pc}
   25c14:	000671a0 	.word	0x000671a0
   25c18:	000671aa 	.word	0x000671aa
   25c1c:	000671b2 	.word	0x000671b2
   25c20:	000671c8 	.word	0x000671c8
   25c24:	00067154 	.word	0x00067154
   25c28:	00067140 	.word	0x00067140
   25c2c:	000671d3 	.word	0x000671d3
   25c30:	000671e9 	.word	0x000671e9
   25c34:	00067205 	.word	0x00067205
   25c38:	00067164 	.word	0x00067164
   25c3c:	00067130 	.word	0x00067130
   25c40:	00067214 	.word	0x00067214
   25c44:	00067170 	.word	0x00067170
   25c48:	00067222 	.word	0x00067222
   25c4c:	00067232 	.word	0x00067232
   25c50:	00067191 	.word	0x00067191
   25c54:	0006723f 	.word	0x0006723f
   25c58:	00067259 	.word	0x00067259
   25c5c:	00067278 	.word	0x00067278
   25c60:	0006727d 	.word	0x0006727d
   25c64:	0007230c 	.word	0x0007230c
   25c68:	0006729c 	.word	0x0006729c
   25c6c:	0007093a 	.word	0x0007093a

00025c70 <do_go_exec>:
   25c70:	e1a03000 	mov	r3, r0
   25c74:	e1a00001 	mov	r0, r1
   25c78:	e1a01002 	mov	r1, r2
   25c7c:	e12fff13 	bx	r3

00025c80 <get_checksum>:
   25c80:	e1a03000 	mov	r3, r0
   25c84:	e0801001 	add	r1, r0, r1
   25c88:	e3a00000 	mov	r0, #0
   25c8c:	e1530001 	cmp	r3, r1
   25c90:	14d32001 	ldrbne	r2, [r3], #1
   25c94:	10800002 	addne	r0, r0, r2
   25c98:	1afffffb 	bne	25c8c <get_checksum+0xc>
   25c9c:	e12fff1e 	bx	lr

00025ca0 <get_mem_layout_when_read_image>:
   25ca0:	e5901018 	ldr	r1, [r0, #24]
   25ca4:	e3510000 	cmp	r1, #0
   25ca8:	1a000004 	bne	25cc0 <get_mem_layout_when_read_image+0x20>
   25cac:	e92d4010 	push	{r4, lr}
   25cb0:	e59f0064 	ldr	r0, [pc, #100]	; 25d1c <get_mem_layout_when_read_image+0x7c>
   25cb4:	eb002001 	bl	2dcc0 <printf>
   25cb8:	e3a00001 	mov	r0, #1
   25cbc:	e8bd8010 	pop	{r4, pc}
   25cc0:	e5d02000 	ldrb	r2, [r0]
   25cc4:	e5d03001 	ldrb	r3, [r0, #1]
   25cc8:	e3520000 	cmp	r2, #0
   25ccc:	0a00000b 	beq	25d00 <get_mem_layout_when_read_image+0x60>
   25cd0:	e3530000 	cmp	r3, #0
   25cd4:	e3a02405 	mov	r2, #83886080	; 0x5000000
   25cd8:	0580100c 	streq	r1, [r0, #12]
   25cdc:	e5802008 	str	r2, [r0, #8]
   25ce0:	e5802004 	str	r2, [r0, #4]
   25ce4:	0a000003 	beq	25cf8 <get_mem_layout_when_read_image+0x58>
   25ce8:	e3a0340b 	mov	r3, #184549376	; 0xb000000
   25cec:	e5803010 	str	r3, [r0, #16]
   25cf0:	e580300c 	str	r3, [r0, #12]
   25cf4:	e5801014 	str	r1, [r0, #20]
   25cf8:	e3a00000 	mov	r0, #0
   25cfc:	e12fff1e 	bx	lr
   25d00:	e3530000 	cmp	r3, #0
   25d04:	05801004 	streq	r1, [r0, #4]
   25d08:	13a0340b 	movne	r3, #184549376	; 0xb000000
   25d0c:	15803010 	strne	r3, [r0, #16]
   25d10:	15803004 	strne	r3, [r0, #4]
   25d14:	0afffff7 	beq	25cf8 <get_mem_layout_when_read_image+0x58>
   25d18:	eafffff5 	b	25cf4 <get_mem_layout_when_read_image+0x54>
   25d1c:	000672a9 	.word	0x000672a9

00025d20 <decrypt_image>:
   25d20:	e92d42f0 	push	{r4, r5, r6, r7, r9, lr}
   25d24:	e1a04002 	mov	r4, r2
   25d28:	e1a05000 	mov	r5, r0
   25d2c:	e1a06001 	mov	r6, r1
   25d30:	e1a07003 	mov	r7, r3
   25d34:	e1a03002 	mov	r3, r2
   25d38:	e1a02001 	mov	r2, r1
   25d3c:	e1a01000 	mov	r1, r0
   25d40:	e59f0040 	ldr	r0, [pc, #64]	; 25d88 <decrypt_image+0x68>
   25d44:	eb001fdd 	bl	2dcc0 <printf>
   25d48:	e314000f 	tst	r4, #15
   25d4c:	1300226e 	movwne	r2, #622	; 0x26e
   25d50:	1a000007 	bne	25d74 <decrypt_image+0x54>
   25d54:	e1a03007 	mov	r3, r7
   25d58:	e1a02006 	mov	r2, r6
   25d5c:	e1a01004 	mov	r1, r4
   25d60:	e1a00005 	mov	r0, r5
   25d64:	ebfff4a3 	bl	22ff8 <AES_ECB_decrypt>
   25d68:	e3500000 	cmp	r0, #0
   25d6c:	08bd82f0 	popeq	{r4, r5, r6, r7, r9, pc}
   25d70:	e3002273 	movw	r2, #627	; 0x273
   25d74:	e59f1010 	ldr	r1, [pc, #16]	; 25d8c <decrypt_image+0x6c>
   25d78:	e59f0010 	ldr	r0, [pc, #16]	; 25d90 <decrypt_image+0x70>
   25d7c:	eb001fcf 	bl	2dcc0 <printf>
   25d80:	e3e00000 	mvn	r0, #0
   25d84:	e8bd82f0 	pop	{r4, r5, r6, r7, r9, pc}
   25d88:	000672d9 	.word	0x000672d9
   25d8c:	00063e5d 	.word	0x00063e5d
   25d90:	00067304 	.word	0x00067304

00025d94 <rtk_get_secure_boot_type>:
   25d94:	e3a00000 	mov	r0, #0
   25d98:	e12fff1e 	bx	lr

00025d9c <rtk_plat_read_fw_image_from_USB>:
   25d9c:	e3a00000 	mov	r0, #0
   25da0:	e12fff1e 	bx	lr

00025da4 <rtk_plat_get_dtb_target_address>:
   25da4:	e59f3020 	ldr	r3, [pc, #32]	; 25dcc <rtk_plat_get_dtb_target_address+0x28>
   25da8:	e240261f 	sub	r2, r0, #32505856	; 0x1f00000
   25dac:	e1520003 	cmp	r2, r3
   25db0:	912fff1e 	bxls	lr
   25db4:	e1a01000 	mov	r1, r0
   25db8:	e59f0010 	ldr	r0, [pc, #16]	; 25dd0 <rtk_plat_get_dtb_target_address+0x2c>
   25dbc:	e92d4010 	push	{r4, lr}
   25dc0:	eb001fbe 	bl	2dcc0 <printf>
   25dc4:	e3a0061f 	mov	r0, #32505856	; 0x1f00000
   25dc8:	e8bd8010 	pop	{r4, pc}
   25dcc:	00101fff 	.word	0x00101fff
   25dd0:	00067311 	.word	0x00067311

00025dd4 <rtk_preload_bootimages>:
   25dd4:	e92d4037 	push	{r0, r1, r2, r4, r5, lr}
   25dd8:	e3a02000 	mov	r2, #0
   25ddc:	e3a01010 	mov	r1, #16
   25de0:	e59f0050 	ldr	r0, [pc, #80]	; 25e38 <rtk_preload_bootimages+0x64>
   25de4:	e3a04601 	mov	r4, #1048576	; 0x100000
   25de8:	eb001778 	bl	2bbd0 <getenv_ulong>
   25dec:	e59f2048 	ldr	r2, [pc, #72]	; 25e3c <rtk_preload_bootimages+0x68>
   25df0:	e1a03000 	mov	r3, r0
   25df4:	e1a05000 	mov	r5, r0
   25df8:	e59f1040 	ldr	r1, [pc, #64]	; 25e40 <rtk_preload_bootimages+0x6c>
   25dfc:	e58d4000 	str	r4, [sp]
   25e00:	e59f003c 	ldr	r0, [pc, #60]	; 25e44 <rtk_preload_bootimages+0x70>
   25e04:	eb001fad 	bl	2dcc0 <printf>
   25e08:	e1a02005 	mov	r2, r5
   25e0c:	e1a01004 	mov	r1, r4
   25e10:	e59f0024 	ldr	r0, [pc, #36]	; 25e3c <rtk_preload_bootimages+0x68>
   25e14:	eb0072e2 	bl	429a4 <rtk_eMMC_read>
   25e18:	e3500000 	cmp	r0, #0
   25e1c:	13a00000 	movne	r0, #0
   25e20:	1a000002 	bne	25e30 <rtk_preload_bootimages+0x5c>
   25e24:	e59f001c 	ldr	r0, [pc, #28]	; 25e48 <rtk_preload_bootimages+0x74>
   25e28:	eb001fa4 	bl	2dcc0 <printf>
   25e2c:	e3a00002 	mov	r0, #2
   25e30:	e28dd00c 	add	sp, sp, #12
   25e34:	e8bd8030 	pop	{r4, r5, pc}
   25e38:	00067329 	.word	0x00067329
   25e3c:	00028125 	.word	0x00028125
   25e40:	00063e6b 	.word	0x00063e6b
   25e44:	00067341 	.word	0x00067341
   25e48:	0006737d 	.word	0x0006737d

00025e4c <GetKeyFromSRAM>:
   25e4c:	e0812002 	add	r2, r1, r2
   25e50:	e0610000 	rsb	r0, r1, r0
   25e54:	e1510002 	cmp	r1, r2
   25e58:	17d03001 	ldrbne	r3, [r0, r1]
   25e5c:	14c13001 	strbne	r3, [r1], #1
   25e60:	1afffffb 	bne	25e54 <GetKeyFromSRAM+0x8>
   25e64:	e12fff1e 	bx	lr

00025e68 <rtk_decrypt_rescue_from_usb>:
   25e68:	e92d4ef0 	push	{r4, r5, r6, r7, r9, sl, fp, lr}
   25e6c:	e59f3204 	ldr	r3, [pc, #516]	; 26078 <rtk_decrypt_rescue_from_usb+0x210>
   25e70:	e3a04000 	mov	r4, #0
   25e74:	e24ddf72 	sub	sp, sp, #456	; 0x1c8
   25e78:	e3a02405 	mov	r2, #83886080	; 0x5000000
   25e7c:	e1a0a000 	mov	sl, r0
   25e80:	e1a05001 	mov	r5, r1
   25e84:	e5834000 	str	r4, [r3]
   25e88:	e1a03000 	mov	r3, r0
   25e8c:	e59f11e8 	ldr	r1, [pc, #488]	; 2607c <rtk_decrypt_rescue_from_usb+0x214>
   25e90:	e28d0048 	add	r0, sp, #72	; 0x48
   25e94:	eb00d39d 	bl	5ad10 <sprintf>
   25e98:	e1a01004 	mov	r1, r4
   25e9c:	e28d0048 	add	r0, sp, #72	; 0x48
   25ea0:	eb0040a8 	bl	36148 <run_command>
   25ea4:	e2504000 	subs	r4, r0, #0
   25ea8:	1a00006e 	bne	26068 <rtk_decrypt_rescue_from_usb+0x200>
   25eac:	e1a02004 	mov	r2, r4
   25eb0:	e3a01010 	mov	r1, #16
   25eb4:	e59f01c4 	ldr	r0, [pc, #452]	; 26080 <rtk_decrypt_rescue_from_usb+0x218>
   25eb8:	e28d70c8 	add	r7, sp, #200	; 0xc8
   25ebc:	eb001743 	bl	2bbd0 <getenv_ulong>
   25ec0:	e1a01004 	mov	r1, r4
   25ec4:	e1a06000 	mov	r6, r0
   25ec8:	e3a02010 	mov	r2, #16
   25ecc:	e28d0008 	add	r0, sp, #8
   25ed0:	eb00cdc1 	bl	595dc <memset>
   25ed4:	e1a01004 	mov	r1, r4
   25ed8:	e3a02010 	mov	r2, #16
   25edc:	e28d0018 	add	r0, sp, #24
   25ee0:	eb00cdbd 	bl	595dc <memset>
   25ee4:	e1a01004 	mov	r1, r4
   25ee8:	e3a02010 	mov	r2, #16
   25eec:	e28d0028 	add	r0, sp, #40	; 0x28
   25ef0:	eb00cdb9 	bl	595dc <memset>
   25ef4:	e1a01004 	mov	r1, r4
   25ef8:	e3a02010 	mov	r2, #16
   25efc:	e28d0038 	add	r0, sp, #56	; 0x38
   25f00:	eb00cdb5 	bl	595dc <memset>
   25f04:	e1a01004 	mov	r1, r4
   25f08:	e3a02c01 	mov	r2, #256	; 0x100
   25f0c:	e1a00007 	mov	r0, r7
   25f10:	eb00cdb1 	bl	595dc <memset>
   25f14:	e28d1038 	add	r1, sp, #56	; 0x38
   25f18:	e3a02010 	mov	r2, #16
   25f1c:	e59f0160 	ldr	r0, [pc, #352]	; 26084 <rtk_decrypt_rescue_from_usb+0x21c>
   25f20:	ebffffc9 	bl	25e4c <GetKeyFromSRAM>
   25f24:	e3a02c01 	mov	r2, #256	; 0x100
   25f28:	e1a01007 	mov	r1, r7
   25f2c:	e59f0154 	ldr	r0, [pc, #340]	; 26088 <rtk_decrypt_rescue_from_usb+0x220>
   25f30:	ebffffc5 	bl	25e4c <GetKeyFromSRAM>
   25f34:	e28d0038 	add	r0, sp, #56	; 0x38
   25f38:	e3a01010 	mov	r1, #16
   25f3c:	ebffedc8 	bl	21664 <flush_cache>
   25f40:	e1a00007 	mov	r0, r7
   25f44:	e3a01c01 	mov	r1, #256	; 0x100
   25f48:	ebffedc5 	bl	21664 <flush_cache>
   25f4c:	e28d3018 	add	r3, sp, #24
   25f50:	e28d2028 	add	r2, sp, #40	; 0x28
   25f54:	e3a01010 	mov	r1, #16
   25f58:	e28d0008 	add	r0, sp, #8
   25f5c:	ebfff449 	bl	23088 <AES_ECB_encrypt>
   25f60:	e3a01010 	mov	r1, #16
   25f64:	e28d0028 	add	r0, sp, #40	; 0x28
   25f68:	ebffedbd 	bl	21664 <flush_cache>
   25f6c:	f57ff05f 	dmb	sy
   25f70:	e59f9114 	ldr	r9, [pc, #276]	; 2608c <rtk_decrypt_rescue_from_usb+0x224>
   25f74:	e5894020 	str	r4, [r9, #32]
   25f78:	f57ff05f 	dmb	sy
   25f7c:	e3a01010 	mov	r1, #16
   25f80:	e28d0038 	add	r0, sp, #56	; 0x38
   25f84:	ebffedb6 	bl	21664 <flush_cache>
   25f88:	e59f0100 	ldr	r0, [pc, #256]	; 26090 <rtk_decrypt_rescue_from_usb+0x228>
   25f8c:	eb001f4b 	bl	2dcc0 <printf>
   25f90:	e246bf81 	sub	fp, r6, #516	; 0x204
   25f94:	e1a01006 	mov	r1, r6
   25f98:	e3a00405 	mov	r0, #83886080	; 0x5000000
   25f9c:	ebffedb0 	bl	21664 <flush_cache>
   25fa0:	e28d3038 	add	r3, sp, #56	; 0x38
   25fa4:	e1a0200b 	mov	r2, fp
   25fa8:	e1a01005 	mov	r1, r5
   25fac:	e3a00405 	mov	r0, #83886080	; 0x5000000
   25fb0:	ebffff5a 	bl	25d20 <decrypt_image>
   25fb4:	e2504000 	subs	r4, r0, #0
   25fb8:	0a000003 	beq	25fcc <rtk_decrypt_rescue_from_usb+0x164>
   25fbc:	e1a0100a 	mov	r1, sl
   25fc0:	e59f00cc 	ldr	r0, [pc, #204]	; 26094 <rtk_decrypt_rescue_from_usb+0x22c>
   25fc4:	eb001f3d 	bl	2dcc0 <printf>
   25fc8:	ea000026 	b	26068 <rtk_decrypt_rescue_from_usb+0x200>
   25fcc:	f57ff05f 	dmb	sy
   25fd0:	e5894020 	str	r4, [r9, #32]
   25fd4:	f57ff05f 	dmb	sy
   25fd8:	e3a02010 	mov	r2, #16
   25fdc:	e1a01004 	mov	r1, r4
   25fe0:	e28d0008 	add	r0, sp, #8
   25fe4:	e2459f81 	sub	r9, r5, #516	; 0x204
   25fe8:	eb00cd7b 	bl	595dc <memset>
   25fec:	e3a02010 	mov	r2, #16
   25ff0:	e1a01004 	mov	r1, r4
   25ff4:	e28d0018 	add	r0, sp, #24
   25ff8:	eb00cd77 	bl	595dc <memset>
   25ffc:	e3a02010 	mov	r2, #16
   26000:	e1a01004 	mov	r1, r4
   26004:	e28d0028 	add	r0, sp, #40	; 0x28
   26008:	eb00cd73 	bl	595dc <memset>
   2600c:	e0899006 	add	r9, r9, r6
   26010:	e2861405 	add	r1, r6, #83886080	; 0x5000000
   26014:	e3a02f81 	mov	r2, #516	; 0x204
   26018:	e2411f81 	sub	r1, r1, #516	; 0x204
   2601c:	e1a00009 	mov	r0, r9
   26020:	ebfff581 	bl	2362c <copy_memory>
   26024:	e1a01006 	mov	r1, r6
   26028:	e1a00005 	mov	r0, r5
   2602c:	ebffed8c 	bl	21664 <flush_cache>
   26030:	e2453004 	sub	r3, r5, #4
   26034:	e793000b 	ldr	r0, [r3, fp]
   26038:	ebfff36f 	bl	22dfc <swap_endian>
   2603c:	e1a02009 	mov	r2, r9
   26040:	e1a011a0 	lsr	r1, r0, #3
   26044:	e58d7000 	str	r7, [sp]
   26048:	e3a03001 	mov	r3, #1
   2604c:	e1a00005 	mov	r0, r5
   26050:	ebfff5ee 	bl	23810 <Verify_SHA256_hash>
   26054:	e2502000 	subs	r2, r0, #0
   26058:	aa000003 	bge	2606c <rtk_decrypt_rescue_from_usb+0x204>
   2605c:	e59f1034 	ldr	r1, [pc, #52]	; 26098 <rtk_decrypt_rescue_from_usb+0x230>
   26060:	e59f0034 	ldr	r0, [pc, #52]	; 2609c <rtk_decrypt_rescue_from_usb+0x234>
   26064:	eb001f15 	bl	2dcc0 <printf>
   26068:	e3a04002 	mov	r4, #2
   2606c:	e1a00004 	mov	r0, r4
   26070:	e28ddf72 	add	sp, sp, #456	; 0x1c8
   26074:	e8bd8ef0 	pop	{r4, r5, r6, r7, r9, sl, fp, pc}
   26078:	000735f0 	.word	0x000735f0
   2607c:	00067387 	.word	0x00067387
   26080:	0006739d 	.word	0x0006739d
   26084:	80006a10 	.word	0x80006a10
   26088:	80006a60 	.word	0x80006a60
   2608c:	9801a000 	.word	0x9801a000
   26090:	000673a6 	.word	0x000673a6
   26094:	000673b5 	.word	0x000673b5
   26098:	00063e82 	.word	0x00063e82
   2609c:	000673ce 	.word	0x000673ce

000260a0 <rtk_plat_read_fw_image_from_eMMC>:
   260a0:	e92d4ef0 	push	{r4, r5, r6, r7, r9, sl, fp, lr}
   260a4:	e59f1814 	ldr	r1, [pc, #2068]	; 268c0 <rtk_plat_read_fw_image_from_eMMC+0x820>
   260a8:	e3a02000 	mov	r2, #0
   260ac:	e24dd078 	sub	sp, sp, #120	; 0x78
   260b0:	e5812000 	str	r2, [r1]
   260b4:	e5dd909c 	ldrb	r9, [sp, #156]	; 0x9c
   260b8:	e58d2008 	str	r2, [sp, #8]
   260bc:	e3590011 	cmp	r9, #17
   260c0:	0a000005 	beq	260dc <rtk_plat_read_fw_image_from_eMMC+0x3c>
   260c4:	e3590021 	cmp	r9, #33	; 0x21
   260c8:	0a000005 	beq	260e4 <rtk_plat_read_fw_image_from_eMMC+0x44>
   260cc:	e3590001 	cmp	r9, #1
   260d0:	1a0001f7 	bne	268b4 <rtk_plat_read_fw_image_from_eMMC+0x814>
   260d4:	e3a07020 	mov	r7, #32
   260d8:	ea000002 	b	260e8 <rtk_plat_read_fw_image_from_eMMC+0x48>
   260dc:	e3a07060 	mov	r7, #96	; 0x60
   260e0:	ea000000 	b	260e8 <rtk_plat_read_fw_image_from_eMMC+0x48>
   260e4:	e3a07d05 	mov	r7, #320	; 0x140
   260e8:	e1a05003 	mov	r5, r3
   260ec:	e3a06000 	mov	r6, #0
   260f0:	e1a04005 	mov	r4, r5
   260f4:	e3a02050 	mov	r2, #80	; 0x50
   260f8:	e3a01000 	mov	r1, #0
   260fc:	e59f07c0 	ldr	r0, [pc, #1984]	; 268c4 <rtk_plat_read_fw_image_from_eMMC+0x824>
   26100:	eb00cd35 	bl	595dc <memset>
   26104:	e59d3098 	ldr	r3, [sp, #152]	; 0x98
   26108:	e1560003 	cmp	r6, r3
   2610c:	aa0001b7 	bge	267f0 <rtk_plat_read_fw_image_from_eMMC+0x750>
   26110:	e5d40007 	ldrb	r0, [r4, #7]
   26114:	e5d43006 	ldrb	r3, [r4, #6]
   26118:	e1830400 	orr	r0, r3, r0, lsl #8
   2611c:	e5d43008 	ldrb	r3, [r4, #8]
   26120:	e1800803 	orr	r0, r0, r3, lsl #16
   26124:	e5d43009 	ldrb	r3, [r4, #9]
   26128:	e1900c03 	orrs	r0, r0, r3, lsl #24
   2612c:	0a0001ac 	beq	267e4 <rtk_plat_read_fw_image_from_eMMC+0x744>
   26130:	e59f3790 	ldr	r3, [pc, #1936]	; 268c8 <rtk_plat_read_fw_image_from_eMMC+0x828>
   26134:	e5932000 	ldr	r2, [r3]
   26138:	e5d43000 	ldrb	r3, [r4]
   2613c:	e3520001 	cmp	r2, #1
   26140:	13520007 	cmpne	r2, #7
   26144:	1a000033 	bne	26218 <rtk_plat_read_fw_image_from_eMMC+0x178>
   26148:	e2433002 	sub	r3, r3, #2
   2614c:	e3530005 	cmp	r3, #5
   26150:	979ff103 	ldrls	pc, [pc, r3, lsl #2]
   26154:	ea0001a2 	b	267e4 <rtk_plat_read_fw_image_from_eMMC+0x744>
   26158:	000263e4 	.word	0x000263e4
   2615c:	00026170 	.word	0x00026170
   26160:	000267e4 	.word	0x000267e4
   26164:	000261dc 	.word	0x000261dc
   26168:	000267e4 	.word	0x000267e4
   2616c:	000261e4 	.word	0x000261e4
   26170:	ebffff0b 	bl	25da4 <rtk_plat_get_dtb_target_address>
   26174:	e3a02010 	mov	r2, #16
   26178:	e7e73450 	ubfx	r3, r0, #8, #8
   2617c:	e5c40006 	strb	r0, [r4, #6]
   26180:	e5c43007 	strb	r3, [r4, #7]
   26184:	e3a01000 	mov	r1, #0
   26188:	e7e73850 	ubfx	r3, r0, #16, #8
   2618c:	e1a00c20 	lsr	r0, r0, #24
   26190:	e5c43008 	strb	r3, [r4, #8]
   26194:	e5c40009 	strb	r0, [r4, #9]
   26198:	e28d000c 	add	r0, sp, #12
   2619c:	eb00cd0e 	bl	595dc <memset>
   261a0:	e5d42007 	ldrb	r2, [r4, #7]
   261a4:	e5d43006 	ldrb	r3, [r4, #6]
   261a8:	e28d000c 	add	r0, sp, #12
   261ac:	e59f1718 	ldr	r1, [pc, #1816]	; 268cc <rtk_plat_read_fw_image_from_eMMC+0x82c>
   261b0:	e1833402 	orr	r3, r3, r2, lsl #8
   261b4:	e5d42008 	ldrb	r2, [r4, #8]
   261b8:	e1833802 	orr	r3, r3, r2, lsl #16
   261bc:	e5d42009 	ldrb	r2, [r4, #9]
   261c0:	e1832c02 	orr	r2, r3, r2, lsl #24
   261c4:	eb00d2d1 	bl	5ad10 <sprintf>
   261c8:	e28d100c 	add	r1, sp, #12
   261cc:	e59f06fc 	ldr	r0, [pc, #1788]	; 268d0 <rtk_plat_read_fw_image_from_eMMC+0x830>
   261d0:	eb0015d5 	bl	2b92c <setenv>
   261d4:	e59f06f8 	ldr	r0, [pc, #1784]	; 268d4 <rtk_plat_read_fw_image_from_eMMC+0x834>
   261d8:	ea0000fe 	b	265d8 <rtk_plat_read_fw_image_from_eMMC+0x538>
   261dc:	e59f06f4 	ldr	r0, [pc, #1780]	; 268d8 <rtk_plat_read_fw_image_from_eMMC+0x838>
   261e0:	ea0000fc 	b	265d8 <rtk_plat_read_fw_image_from_eMMC+0x538>
   261e4:	e3520008 	cmp	r2, #8
   261e8:	0a00017d 	beq	267e4 <rtk_plat_read_fw_image_from_eMMC+0x744>
   261ec:	e3803102 	orr	r3, r0, #-2147483648	; 0x80000000
   261f0:	e1a00c00 	lsl	r0, r0, #24
   261f4:	e7e72453 	ubfx	r2, r3, #8, #8
   261f8:	e1800c23 	orr	r0, r0, r3, lsr #24
   261fc:	e1a03423 	lsr	r3, r3, #8
   26200:	e1800802 	orr	r0, r0, r2, lsl #16
   26204:	e59f26d0 	ldr	r2, [pc, #1744]	; 268dc <rtk_plat_read_fw_image_from_eMMC+0x83c>
   26208:	e2033cff 	and	r3, r3, #65280	; 0xff00
   2620c:	e1803003 	orr	r3, r0, r3
   26210:	e582301c 	str	r3, [r2, #28]
   26214:	ea0000ae 	b	264d4 <rtk_plat_read_fw_image_from_eMMC+0x434>
   26218:	e3520009 	cmp	r2, #9
   2621c:	1a000043 	bne	26330 <rtk_plat_read_fw_image_from_eMMC+0x290>
   26220:	e243301f 	sub	r3, r3, #31
   26224:	e3530003 	cmp	r3, #3
   26228:	979ff103 	ldrls	pc, [pc, r3, lsl #2]
   2622c:	ea00016c 	b	267e4 <rtk_plat_read_fw_image_from_eMMC+0x744>
   26230:	00026240 	.word	0x00026240
   26234:	0002628c 	.word	0x0002628c
   26238:	000262f8 	.word	0x000262f8
   2623c:	00026300 	.word	0x00026300
   26240:	e3a02010 	mov	r2, #16
   26244:	e3a01000 	mov	r1, #0
   26248:	e28d000c 	add	r0, sp, #12
   2624c:	eb00cce2 	bl	595dc <memset>
   26250:	e5d42007 	ldrb	r2, [r4, #7]
   26254:	e5d43006 	ldrb	r3, [r4, #6]
   26258:	e28d000c 	add	r0, sp, #12
   2625c:	e59f1668 	ldr	r1, [pc, #1640]	; 268cc <rtk_plat_read_fw_image_from_eMMC+0x82c>
   26260:	e1833402 	orr	r3, r3, r2, lsl #8
   26264:	e5d42008 	ldrb	r2, [r4, #8]
   26268:	e1833802 	orr	r3, r3, r2, lsl #16
   2626c:	e5d42009 	ldrb	r2, [r4, #9]
   26270:	e1832c02 	orr	r2, r3, r2, lsl #24
   26274:	eb00d2a5 	bl	5ad10 <sprintf>
   26278:	e28d100c 	add	r1, sp, #12
   2627c:	e59f065c 	ldr	r0, [pc, #1628]	; 268e0 <rtk_plat_read_fw_image_from_eMMC+0x840>
   26280:	eb0015a9 	bl	2b92c <setenv>
   26284:	e59f0658 	ldr	r0, [pc, #1624]	; 268e4 <rtk_plat_read_fw_image_from_eMMC+0x844>
   26288:	ea0000d2 	b	265d8 <rtk_plat_read_fw_image_from_eMMC+0x538>
   2628c:	ebfffec4 	bl	25da4 <rtk_plat_get_dtb_target_address>
   26290:	e3a02010 	mov	r2, #16
   26294:	e7e73450 	ubfx	r3, r0, #8, #8
   26298:	e5c40006 	strb	r0, [r4, #6]
   2629c:	e5c43007 	strb	r3, [r4, #7]
   262a0:	e3a01000 	mov	r1, #0
   262a4:	e7e73850 	ubfx	r3, r0, #16, #8
   262a8:	e1a00c20 	lsr	r0, r0, #24
   262ac:	e5c43008 	strb	r3, [r4, #8]
   262b0:	e5c40009 	strb	r0, [r4, #9]
   262b4:	e28d000c 	add	r0, sp, #12
   262b8:	eb00ccc7 	bl	595dc <memset>
   262bc:	e5d42007 	ldrb	r2, [r4, #7]
   262c0:	e5d43006 	ldrb	r3, [r4, #6]
   262c4:	e28d000c 	add	r0, sp, #12
   262c8:	e59f15fc 	ldr	r1, [pc, #1532]	; 268cc <rtk_plat_read_fw_image_from_eMMC+0x82c>
   262cc:	e1833402 	orr	r3, r3, r2, lsl #8
   262d0:	e5d42008 	ldrb	r2, [r4, #8]
   262d4:	e1833802 	orr	r3, r3, r2, lsl #16
   262d8:	e5d42009 	ldrb	r2, [r4, #9]
   262dc:	e1832c02 	orr	r2, r3, r2, lsl #24
   262e0:	eb00d28a 	bl	5ad10 <sprintf>
   262e4:	e28d100c 	add	r1, sp, #12
   262e8:	e59f05e0 	ldr	r0, [pc, #1504]	; 268d0 <rtk_plat_read_fw_image_from_eMMC+0x830>
   262ec:	eb00158e 	bl	2b92c <setenv>
   262f0:	e59f05f0 	ldr	r0, [pc, #1520]	; 268e8 <rtk_plat_read_fw_image_from_eMMC+0x848>
   262f4:	ea0000b7 	b	265d8 <rtk_plat_read_fw_image_from_eMMC+0x538>
   262f8:	e59f05ec 	ldr	r0, [pc, #1516]	; 268ec <rtk_plat_read_fw_image_from_eMMC+0x84c>
   262fc:	ea0000b5 	b	265d8 <rtk_plat_read_fw_image_from_eMMC+0x538>
   26300:	e3803102 	orr	r3, r0, #-2147483648	; 0x80000000
   26304:	e1a00c00 	lsl	r0, r0, #24
   26308:	e7e72453 	ubfx	r2, r3, #8, #8
   2630c:	e1800c23 	orr	r0, r0, r3, lsr #24
   26310:	e1a03423 	lsr	r3, r3, #8
   26314:	e1800802 	orr	r0, r0, r2, lsl #16
   26318:	e59f25bc 	ldr	r2, [pc, #1468]	; 268dc <rtk_plat_read_fw_image_from_eMMC+0x83c>
   2631c:	e2033cff 	and	r3, r3, #65280	; 0xff00
   26320:	e1803003 	orr	r3, r0, r3
   26324:	e59f05c4 	ldr	r0, [pc, #1476]	; 268f0 <rtk_plat_read_fw_image_from_eMMC+0x850>
   26328:	e582301c 	str	r3, [r2, #28]
   2632c:	ea0000a9 	b	265d8 <rtk_plat_read_fw_image_from_eMMC+0x538>
   26330:	e2433001 	sub	r3, r3, #1
   26334:	e3530026 	cmp	r3, #38	; 0x26
   26338:	979ff103 	ldrls	pc, [pc, r3, lsl #2]
   2633c:	ea000128 	b	267e4 <rtk_plat_read_fw_image_from_eMMC+0x744>
   26340:	000263dc 	.word	0x000263dc
   26344:	000263e4 	.word	0x000263e4
   26348:	000267e4 	.word	0x000267e4
   2634c:	00026430 	.word	0x00026430
   26350:	000267e4 	.word	0x000267e4
   26354:	0002649c 	.word	0x0002649c
   26358:	000264a4 	.word	0x000264a4
   2635c:	000265dc 	.word	0x000265dc
   26360:	000265dc 	.word	0x000265dc
   26364:	000267e4 	.word	0x000267e4
   26368:	000267e4 	.word	0x000267e4
   2636c:	000264e4 	.word	0x000264e4
   26370:	000264ec 	.word	0x000264ec
   26374:	000264f4 	.word	0x000264f4
   26378:	000264fc 	.word	0x000264fc
   2637c:	000267e4 	.word	0x000267e4
   26380:	000267e4 	.word	0x000267e4
   26384:	000267e4 	.word	0x000267e4
   26388:	000264dc 	.word	0x000264dc
   2638c:	00026504 	.word	0x00026504
   26390:	000267e4 	.word	0x000267e4
   26394:	000267e4 	.word	0x000267e4
   26398:	000267e4 	.word	0x000267e4
   2639c:	000267e4 	.word	0x000267e4
   263a0:	000267e4 	.word	0x000267e4
   263a4:	000267e4 	.word	0x000267e4
   263a8:	000267e4 	.word	0x000267e4
   263ac:	000267e4 	.word	0x000267e4
   263b0:	000267e4 	.word	0x000267e4
   263b4:	000267e4 	.word	0x000267e4
   263b8:	000267e4 	.word	0x000267e4
   263bc:	000267e4 	.word	0x000267e4
   263c0:	000267e4 	.word	0x000267e4
   263c4:	000267e4 	.word	0x000267e4
   263c8:	000267e4 	.word	0x000267e4
   263cc:	000267e4 	.word	0x000267e4
   263d0:	00026584 	.word	0x00026584
   263d4:	000267e4 	.word	0x000267e4
   263d8:	00026590 	.word	0x00026590
   263dc:	e59f0510 	ldr	r0, [pc, #1296]	; 268f4 <rtk_plat_read_fw_image_from_eMMC+0x854>
   263e0:	ea00007c 	b	265d8 <rtk_plat_read_fw_image_from_eMMC+0x538>
   263e4:	e3a02010 	mov	r2, #16
   263e8:	e3a01000 	mov	r1, #0
   263ec:	e28d000c 	add	r0, sp, #12
   263f0:	eb00cc79 	bl	595dc <memset>
   263f4:	e5d42007 	ldrb	r2, [r4, #7]
   263f8:	e5d43006 	ldrb	r3, [r4, #6]
   263fc:	e28d000c 	add	r0, sp, #12
   26400:	e59f14c4 	ldr	r1, [pc, #1220]	; 268cc <rtk_plat_read_fw_image_from_eMMC+0x82c>
   26404:	e1833402 	orr	r3, r3, r2, lsl #8
   26408:	e5d42008 	ldrb	r2, [r4, #8]
   2640c:	e1833802 	orr	r3, r3, r2, lsl #16
   26410:	e5d42009 	ldrb	r2, [r4, #9]
   26414:	e1832c02 	orr	r2, r3, r2, lsl #24
   26418:	eb00d23c 	bl	5ad10 <sprintf>
   2641c:	e28d100c 	add	r1, sp, #12
   26420:	e59f04b8 	ldr	r0, [pc, #1208]	; 268e0 <rtk_plat_read_fw_image_from_eMMC+0x840>
   26424:	eb001540 	bl	2b92c <setenv>
   26428:	e59f04c8 	ldr	r0, [pc, #1224]	; 268f8 <rtk_plat_read_fw_image_from_eMMC+0x858>
   2642c:	ea000069 	b	265d8 <rtk_plat_read_fw_image_from_eMMC+0x538>
   26430:	ebfffe5b 	bl	25da4 <rtk_plat_get_dtb_target_address>
   26434:	e3a02010 	mov	r2, #16
   26438:	e7e73450 	ubfx	r3, r0, #8, #8
   2643c:	e5c40006 	strb	r0, [r4, #6]
   26440:	e5c43007 	strb	r3, [r4, #7]
   26444:	e3a01000 	mov	r1, #0
   26448:	e7e73850 	ubfx	r3, r0, #16, #8
   2644c:	e1a00c20 	lsr	r0, r0, #24
   26450:	e5c43008 	strb	r3, [r4, #8]
   26454:	e5c40009 	strb	r0, [r4, #9]
   26458:	e28d000c 	add	r0, sp, #12
   2645c:	eb00cc5e 	bl	595dc <memset>
   26460:	e5d42007 	ldrb	r2, [r4, #7]
   26464:	e5d43006 	ldrb	r3, [r4, #6]
   26468:	e28d000c 	add	r0, sp, #12
   2646c:	e59f1458 	ldr	r1, [pc, #1112]	; 268cc <rtk_plat_read_fw_image_from_eMMC+0x82c>
   26470:	e1833402 	orr	r3, r3, r2, lsl #8
   26474:	e5d42008 	ldrb	r2, [r4, #8]
   26478:	e1833802 	orr	r3, r3, r2, lsl #16
   2647c:	e5d42009 	ldrb	r2, [r4, #9]
   26480:	e1832c02 	orr	r2, r3, r2, lsl #24
   26484:	eb00d221 	bl	5ad10 <sprintf>
   26488:	e28d100c 	add	r1, sp, #12
   2648c:	e59f043c 	ldr	r0, [pc, #1084]	; 268d0 <rtk_plat_read_fw_image_from_eMMC+0x830>
   26490:	eb001525 	bl	2b92c <setenv>
   26494:	e59f0460 	ldr	r0, [pc, #1120]	; 268fc <rtk_plat_read_fw_image_from_eMMC+0x85c>
   26498:	ea00004e 	b	265d8 <rtk_plat_read_fw_image_from_eMMC+0x538>
   2649c:	e59f045c 	ldr	r0, [pc, #1116]	; 26900 <rtk_plat_read_fw_image_from_eMMC+0x860>
   264a0:	ea00004c 	b	265d8 <rtk_plat_read_fw_image_from_eMMC+0x538>
   264a4:	e3520008 	cmp	r2, #8
   264a8:	0a0000cd 	beq	267e4 <rtk_plat_read_fw_image_from_eMMC+0x744>
   264ac:	e3803102 	orr	r3, r0, #-2147483648	; 0x80000000
   264b0:	e1a00c00 	lsl	r0, r0, #24
   264b4:	e7e72453 	ubfx	r2, r3, #8, #8
   264b8:	e1800c23 	orr	r0, r0, r3, lsr #24
   264bc:	e1a03423 	lsr	r3, r3, #8
   264c0:	e2033cff 	and	r3, r3, #65280	; 0xff00
   264c4:	e1800802 	orr	r0, r0, r2, lsl #16
   264c8:	e1800003 	orr	r0, r0, r3
   264cc:	e59f3408 	ldr	r3, [pc, #1032]	; 268dc <rtk_plat_read_fw_image_from_eMMC+0x83c>
   264d0:	e583001c 	str	r0, [r3, #28]
   264d4:	e59f0428 	ldr	r0, [pc, #1064]	; 26904 <rtk_plat_read_fw_image_from_eMMC+0x864>
   264d8:	ea00003e 	b	265d8 <rtk_plat_read_fw_image_from_eMMC+0x538>
   264dc:	e59f0424 	ldr	r0, [pc, #1060]	; 26908 <rtk_plat_read_fw_image_from_eMMC+0x868>
   264e0:	ea00003c 	b	265d8 <rtk_plat_read_fw_image_from_eMMC+0x538>
   264e4:	e59f0420 	ldr	r0, [pc, #1056]	; 2690c <rtk_plat_read_fw_image_from_eMMC+0x86c>
   264e8:	ea00003a 	b	265d8 <rtk_plat_read_fw_image_from_eMMC+0x538>
   264ec:	e59f041c 	ldr	r0, [pc, #1052]	; 26910 <rtk_plat_read_fw_image_from_eMMC+0x870>
   264f0:	ea000038 	b	265d8 <rtk_plat_read_fw_image_from_eMMC+0x538>
   264f4:	e59f0418 	ldr	r0, [pc, #1048]	; 26914 <rtk_plat_read_fw_image_from_eMMC+0x874>
   264f8:	ea000036 	b	265d8 <rtk_plat_read_fw_image_from_eMMC+0x538>
   264fc:	e59f0414 	ldr	r0, [pc, #1044]	; 26918 <rtk_plat_read_fw_image_from_eMMC+0x878>
   26500:	ea000034 	b	265d8 <rtk_plat_read_fw_image_from_eMMC+0x538>
   26504:	e59f0410 	ldr	r0, [pc, #1040]	; 2691c <rtk_plat_read_fw_image_from_eMMC+0x87c>
   26508:	eb001dec 	bl	2dcc0 <printf>
   2650c:	e59f23b0 	ldr	r2, [pc, #944]	; 268c4 <rtk_plat_read_fw_image_from_eMMC+0x824>
   26510:	e59f3408 	ldr	r3, [pc, #1032]	; 26920 <rtk_plat_read_fw_image_from_eMMC+0x880>
   26514:	e59f1408 	ldr	r1, [pc, #1032]	; 26924 <rtk_plat_read_fw_image_from_eMMC+0x884>
   26518:	e5823000 	str	r3, [r2]
   2651c:	e5d13000 	ldrb	r3, [r1]
   26520:	e3530000 	cmp	r3, #0
   26524:	0a00002c 	beq	265dc <rtk_plat_read_fw_image_from_eMMC+0x53c>
   26528:	e5c23038 	strb	r3, [r2, #56]	; 0x38
   2652c:	e5d40007 	ldrb	r0, [r4, #7]
   26530:	e5d43006 	ldrb	r3, [r4, #6]
   26534:	e1833400 	orr	r3, r3, r0, lsl #8
   26538:	e5d40008 	ldrb	r0, [r4, #8]
   2653c:	e1833800 	orr	r3, r3, r0, lsl #16
   26540:	e5d40009 	ldrb	r0, [r4, #9]
   26544:	e1833c00 	orr	r3, r3, r0, lsl #24
   26548:	e6bf3f33 	rev	r3, r3
   2654c:	e582303c 	str	r3, [r2, #60]	; 0x3c
   26550:	e5913004 	ldr	r3, [r1, #4]
   26554:	e6bf3f33 	rev	r3, r3
   26558:	e5823040 	str	r3, [r2, #64]	; 0x40
   2655c:	e5913008 	ldr	r3, [r1, #8]
   26560:	e6bf3f33 	rev	r3, r3
   26564:	e5823044 	str	r3, [r2, #68]	; 0x44
   26568:	e591300c 	ldr	r3, [r1, #12]
   2656c:	e6bf3f33 	rev	r3, r3
   26570:	e5823048 	str	r3, [r2, #72]	; 0x48
   26574:	e5913010 	ldr	r3, [r1, #16]
   26578:	e6bf3f33 	rev	r3, r3
   2657c:	e582304c 	str	r3, [r2, #76]	; 0x4c
   26580:	ea000015 	b	265dc <rtk_plat_read_fw_image_from_eMMC+0x53c>
   26584:	e59f039c 	ldr	r0, [pc, #924]	; 26928 <rtk_plat_read_fw_image_from_eMMC+0x888>
   26588:	eb001dcc 	bl	2dcc0 <printf>
   2658c:	ea000094 	b	267e4 <rtk_plat_read_fw_image_from_eMMC+0x744>
   26590:	e3a02010 	mov	r2, #16
   26594:	e3a01000 	mov	r1, #0
   26598:	e28d000c 	add	r0, sp, #12
   2659c:	eb00cc0e 	bl	595dc <memset>
   265a0:	e5d42007 	ldrb	r2, [r4, #7]
   265a4:	e5d43006 	ldrb	r3, [r4, #6]
   265a8:	e28d000c 	add	r0, sp, #12
   265ac:	e59f1318 	ldr	r1, [pc, #792]	; 268cc <rtk_plat_read_fw_image_from_eMMC+0x82c>
   265b0:	e1833402 	orr	r3, r3, r2, lsl #8
   265b4:	e5d42008 	ldrb	r2, [r4, #8]
   265b8:	e1833802 	orr	r3, r3, r2, lsl #16
   265bc:	e5d42009 	ldrb	r2, [r4, #9]
   265c0:	e1832c02 	orr	r2, r3, r2, lsl #24
   265c4:	eb00d1d1 	bl	5ad10 <sprintf>
   265c8:	e28d100c 	add	r1, sp, #12
   265cc:	e59f0358 	ldr	r0, [pc, #856]	; 2692c <rtk_plat_read_fw_image_from_eMMC+0x88c>
   265d0:	eb0014d5 	bl	2b92c <setenv>
   265d4:	e59f0354 	ldr	r0, [pc, #852]	; 26930 <rtk_plat_read_fw_image_from_eMMC+0x890>
   265d8:	eb001db8 	bl	2dcc0 <printf>
   265dc:	e5d41007 	ldrb	r1, [r4, #7]
   265e0:	e5d43006 	ldrb	r3, [r4, #6]
   265e4:	e5d4200f 	ldrb	r2, [r4, #15]
   265e8:	e1831401 	orr	r1, r3, r1, lsl #8
   265ec:	e5d43008 	ldrb	r3, [r4, #8]
   265f0:	e59f033c 	ldr	r0, [pc, #828]	; 26934 <rtk_plat_read_fw_image_from_eMMC+0x894>
   265f4:	e59fb328 	ldr	fp, [pc, #808]	; 26924 <rtk_plat_read_fw_image_from_eMMC+0x884>
   265f8:	e1811803 	orr	r1, r1, r3, lsl #16
   265fc:	e5d43009 	ldrb	r3, [r4, #9]
   26600:	e1811c03 	orr	r1, r1, r3, lsl #24
   26604:	e5d4300e 	ldrb	r3, [r4, #14]
   26608:	e1832402 	orr	r2, r3, r2, lsl #8
   2660c:	e5d43010 	ldrb	r3, [r4, #16]
   26610:	e1822803 	orr	r2, r2, r3, lsl #16
   26614:	e5d43011 	ldrb	r3, [r4, #17]
   26618:	e1822c03 	orr	r2, r2, r3, lsl #24
   2661c:	e0823001 	add	r3, r2, r1
   26620:	eb001da6 	bl	2dcc0 <printf>
   26624:	e5d4100b 	ldrb	r1, [r4, #11]
   26628:	e5d4300a 	ldrb	r3, [r4, #10]
   2662c:	e59f0304 	ldr	r0, [pc, #772]	; 26938 <rtk_plat_read_fw_image_from_eMMC+0x898>
   26630:	e1833401 	orr	r3, r3, r1, lsl #8
   26634:	e5d4100c 	ldrb	r1, [r4, #12]
   26638:	e1833801 	orr	r3, r3, r1, lsl #16
   2663c:	e5d4100d 	ldrb	r1, [r4, #13]
   26640:	e1833c01 	orr	r3, r3, r1, lsl #24
   26644:	e59b1014 	ldr	r1, [fp, #20]
   26648:	e0831001 	add	r1, r3, r1
   2664c:	eb001d9b 	bl	2dcc0 <printf>
   26650:	e5d41000 	ldrb	r1, [r4]
   26654:	e28d001c 	add	r0, sp, #28
   26658:	e2413005 	sub	r3, r1, #5
   2665c:	e3510002 	cmp	r1, #2
   26660:	13530002 	cmpne	r3, #2
   26664:	93a03001 	movls	r3, #1
   26668:	93a03000 	movls	r3, #0
   2666c:	95cd301c 	strbls	r3, [sp, #28]
   26670:	83a03000 	movhi	r3, #0
   26674:	95d43001 	ldrbls	r3, [r4, #1]
   26678:	85cd301c 	strbhi	r3, [sp, #28]
   2667c:	97e03353 	ubfxls	r3, r3, #6, #1
   26680:	e5cd301d 	strb	r3, [sp, #29]
   26684:	e5d41007 	ldrb	r1, [r4, #7]
   26688:	e5d43006 	ldrb	r3, [r4, #6]
   2668c:	e1833401 	orr	r3, r3, r1, lsl #8
   26690:	e5d41008 	ldrb	r1, [r4, #8]
   26694:	e1833801 	orr	r3, r3, r1, lsl #16
   26698:	e5d41009 	ldrb	r1, [r4, #9]
   2669c:	e1833c01 	orr	r3, r3, r1, lsl #24
   266a0:	e3c3320e 	bic	r3, r3, #-536870912	; 0xe0000000
   266a4:	e58d3034 	str	r3, [sp, #52]	; 0x34
   266a8:	ebfffd7c 	bl	25ca0 <get_mem_layout_when_read_image>
   266ac:	e5d4100f 	ldrb	r1, [r4, #15]
   266b0:	e5d4300e 	ldrb	r3, [r4, #14]
   266b4:	e5d4000b 	ldrb	r0, [r4, #11]
   266b8:	e1833401 	orr	r3, r3, r1, lsl #8
   266bc:	e5d41010 	ldrb	r1, [r4, #16]
   266c0:	e59b2014 	ldr	r2, [fp, #20]
   266c4:	e1833801 	orr	r3, r3, r1, lsl #16
   266c8:	e5d41011 	ldrb	r1, [r4, #17]
   266cc:	e183ac01 	orr	sl, r3, r1, lsl #24
   266d0:	e7e8105a 	ubfx	r1, sl, #0, #9
   266d4:	e3510000 	cmp	r1, #0
   266d8:	e5d4100a 	ldrb	r1, [r4, #10]
   266dc:	13ca3f7f 	bicne	r3, sl, #508	; 0x1fc
   266e0:	e1810400 	orr	r0, r1, r0, lsl #8
   266e4:	e5d4100c 	ldrb	r1, [r4, #12]
   266e8:	13c33003 	bicne	r3, r3, #3
   266ec:	1283ac02 	addne	sl, r3, #512	; 0x200
   266f0:	e1800801 	orr	r0, r0, r1, lsl #16
   266f4:	e5d4100d 	ldrb	r1, [r4, #13]
   266f8:	e1800c01 	orr	r0, r0, r1, lsl #24
   266fc:	e1a0100a 	mov	r1, sl
   26700:	e0800002 	add	r0, r0, r2
   26704:	e59d2020 	ldr	r2, [sp, #32]
   26708:	e1a004a0 	lsr	r0, r0, #9
   2670c:	eb0070a4 	bl	429a4 <rtk_eMMC_read>
   26710:	e3500000 	cmp	r0, #0
   26714:	05d41000 	ldrbeq	r1, [r4]
   26718:	059f021c 	ldreq	r0, [pc, #540]	; 2693c <rtk_plat_read_fw_image_from_eMMC+0x89c>
   2671c:	0a00002e 	beq	267dc <rtk_plat_read_fw_image_from_eMMC+0x73c>
   26720:	e5d4100f 	ldrb	r1, [r4, #15]
   26724:	e5d4200e 	ldrb	r2, [r4, #14]
   26728:	e59d0020 	ldr	r0, [sp, #32]
   2672c:	e1822401 	orr	r2, r2, r1, lsl #8
   26730:	e5d41010 	ldrb	r1, [r4, #16]
   26734:	e1822801 	orr	r2, r2, r1, lsl #16
   26738:	e5d41011 	ldrb	r1, [r4, #17]
   2673c:	e1821c01 	orr	r1, r2, r1, lsl #24
   26740:	ebfffd4e 	bl	25c80 <get_checksum>
   26744:	e1a02000 	mov	r2, r0
   26748:	e5d40017 	ldrb	r0, [r4, #23]
   2674c:	e5d41016 	ldrb	r1, [r4, #22]
   26750:	e1811400 	orr	r1, r1, r0, lsl #8
   26754:	e5d40018 	ldrb	r0, [r4, #24]
   26758:	e1811800 	orr	r1, r1, r0, lsl #16
   2675c:	e5d40019 	ldrb	r0, [r4, #25]
   26760:	e1811c00 	orr	r1, r1, r0, lsl #24
   26764:	e1510002 	cmp	r1, r2
   26768:	0a00000f 	beq	267ac <rtk_plat_read_fw_image_from_eMMC+0x70c>
   2676c:	e59f01cc 	ldr	r0, [pc, #460]	; 26940 <rtk_plat_read_fw_image_from_eMMC+0x8a0>
   26770:	e58d2004 	str	r2, [sp, #4]
   26774:	eb001d51 	bl	2dcc0 <printf>
   26778:	e5d41017 	ldrb	r1, [r4, #23]
   2677c:	e5d43016 	ldrb	r3, [r4, #22]
   26780:	e59f01bc 	ldr	r0, [pc, #444]	; 26944 <rtk_plat_read_fw_image_from_eMMC+0x8a4>
   26784:	e1833401 	orr	r3, r3, r1, lsl #8
   26788:	e5d41018 	ldrb	r1, [r4, #24]
   2678c:	e1833801 	orr	r3, r3, r1, lsl #16
   26790:	e5d41019 	ldrb	r1, [r4, #25]
   26794:	e1831c01 	orr	r1, r3, r1, lsl #24
   26798:	eb001d48 	bl	2dcc0 <printf>
   2679c:	e59d2004 	ldr	r2, [sp, #4]
   267a0:	e59f01a0 	ldr	r0, [pc, #416]	; 26948 <rtk_plat_read_fw_image_from_eMMC+0x8a8>
   267a4:	e1a01002 	mov	r1, r2
   267a8:	ea00000b 	b	267dc <rtk_plat_read_fw_image_from_eMMC+0x73c>
   267ac:	e5dd201d 	ldrb	r2, [sp, #29]
   267b0:	e3520000 	cmp	r2, #0
   267b4:	0a00000a 	beq	267e4 <rtk_plat_read_fw_image_from_eMMC+0x744>
   267b8:	e1a0300a 	mov	r3, sl
   267bc:	e59d202c 	ldr	r2, [sp, #44]	; 0x2c
   267c0:	e28d1008 	add	r1, sp, #8
   267c4:	e59d0030 	ldr	r0, [sp, #48]	; 0x30
   267c8:	eb00d897 	bl	5ca2c <lzmaBuffToBuffDecompress>
   267cc:	e3500000 	cmp	r0, #0
   267d0:	0a000003 	beq	267e4 <rtk_plat_read_fw_image_from_eMMC+0x744>
   267d4:	e59f1170 	ldr	r1, [pc, #368]	; 2694c <rtk_plat_read_fw_image_from_eMMC+0x8ac>
   267d8:	e59f0170 	ldr	r0, [pc, #368]	; 26950 <rtk_plat_read_fw_image_from_eMMC+0x8b0>
   267dc:	eb001d37 	bl	2dcc0 <printf>
   267e0:	ea000033 	b	268b4 <rtk_plat_read_fw_image_from_eMMC+0x814>
   267e4:	e2866001 	add	r6, r6, #1
   267e8:	e0844007 	add	r4, r4, r7
   267ec:	eafffe44 	b	26104 <rtk_plat_read_fw_image_from_eMMC+0x64>
   267f0:	e3590011 	cmp	r9, #17
   267f4:	1a000021 	bne	26880 <rtk_plat_read_fw_image_from_eMMC+0x7e0>
   267f8:	e0255697 	mla	r5, r7, r6, r5
   267fc:	e5d52021 	ldrb	r2, [r5, #33]	; 0x21
   26800:	e5d53020 	ldrb	r3, [r5, #32]
   26804:	e1833402 	orr	r3, r3, r2, lsl #8
   26808:	e5d52022 	ldrb	r2, [r5, #34]	; 0x22
   2680c:	e1833802 	orr	r3, r3, r2, lsl #16
   26810:	e5d52023 	ldrb	r2, [r5, #35]	; 0x23
   26814:	e1933c02 	orrs	r3, r3, r2, lsl #24
   26818:	0a000018 	beq	26880 <rtk_plat_read_fw_image_from_eMMC+0x7e0>
   2681c:	e3a02040 	mov	r2, #64	; 0x40
   26820:	e3a01000 	mov	r1, #0
   26824:	e28d0038 	add	r0, sp, #56	; 0x38
   26828:	eb00cb6b 	bl	595dc <memset>
   2682c:	e5d52021 	ldrb	r2, [r5, #33]	; 0x21
   26830:	e5d53020 	ldrb	r3, [r5, #32]
   26834:	e28d0038 	add	r0, sp, #56	; 0x38
   26838:	e59f1114 	ldr	r1, [pc, #276]	; 26954 <rtk_plat_read_fw_image_from_eMMC+0x8b4>
   2683c:	e1833402 	orr	r3, r3, r2, lsl #8
   26840:	e5d52022 	ldrb	r2, [r5, #34]	; 0x22
   26844:	e1833802 	orr	r3, r3, r2, lsl #16
   26848:	e5d52023 	ldrb	r2, [r5, #35]	; 0x23
   2684c:	e1833c02 	orr	r3, r3, r2, lsl #24
   26850:	e5d52044 	ldrb	r2, [r5, #68]	; 0x44
   26854:	eb00d12d 	bl	5ad10 <sprintf>
   26858:	e3a02040 	mov	r2, #64	; 0x40
   2685c:	e3a01000 	mov	r1, #0
   26860:	e28d0038 	add	r0, sp, #56	; 0x38
   26864:	eb00cb5c 	bl	595dc <memset>
   26868:	e3a02020 	mov	r2, #32
   2686c:	e2851024 	add	r1, r5, #36	; 0x24
   26870:	e28d0038 	add	r0, sp, #56	; 0x38
   26874:	eb00cb78 	bl	5965c <memcpy>
   26878:	e3a0302c 	mov	r3, #44	; 0x2c
   2687c:	e5cd3058 	strb	r3, [sp, #88]	; 0x58
   26880:	e59f303c 	ldr	r3, [pc, #60]	; 268c4 <rtk_plat_read_fw_image_from_eMMC+0x824>
   26884:	e59f2094 	ldr	r2, [pc, #148]	; 26920 <rtk_plat_read_fw_image_from_eMMC+0x880>
   26888:	e5931000 	ldr	r1, [r3]
   2688c:	e1510002 	cmp	r1, r2
   26890:	059f208c 	ldreq	r2, [pc, #140]	; 26924 <rtk_plat_read_fw_image_from_eMMC+0x884>
   26894:	05d22018 	ldrbeq	r2, [r2, #24]
   26898:	05c32016 	strbeq	r2, [r3, #22]
   2689c:	059f3038 	ldreq	r3, [pc, #56]	; 268dc <rtk_plat_read_fw_image_from_eMMC+0x83c>
   268a0:	059f20b0 	ldreq	r2, [pc, #176]	; 26958 <rtk_plat_read_fw_image_from_eMMC+0x8b8>
   268a4:	05832008 	streq	r2, [r3, #8]
   268a8:	ebffeb49 	bl	215d4 <flush_dcache_all>
   268ac:	e3a00000 	mov	r0, #0
   268b0:	ea000000 	b	268b8 <rtk_plat_read_fw_image_from_eMMC+0x818>
   268b4:	e3a00002 	mov	r0, #2
   268b8:	e28dd078 	add	sp, sp, #120	; 0x78
   268bc:	e8bd8ef0 	pop	{r4, r5, r6, r7, r9, sl, fp, pc}
   268c0:	000735f0 	.word	0x000735f0
   268c4:	0001f600 	.word	0x0001f600
   268c8:	0007230c 	.word	0x0007230c
   268cc:	000673ee 	.word	0x000673ee
   268d0:	00067140 	.word	0x00067140
   268d4:	00067404 	.word	0x00067404
   268d8:	00067415 	.word	0x00067415
   268dc:	000735fc 	.word	0x000735fc
   268e0:	00067130 	.word	0x00067130
   268e4:	000673f1 	.word	0x000673f1
   268e8:	000673ff 	.word	0x000673ff
   268ec:	00067410 	.word	0x00067410
   268f0:	00067425 	.word	0x00067425
   268f4:	00067435 	.word	0x00067435
   268f8:	000673f6 	.word	0x000673f6
   268fc:	0006740b 	.word	0x0006740b
   26900:	0006741c 	.word	0x0006741c
   26904:	0006742a 	.word	0x0006742a
   26908:	00067441 	.word	0x00067441
   2690c:	0006744f 	.word	0x0006744f
   26910:	0006745e 	.word	0x0006745e
   26914:	0006746b 	.word	0x0006746b
   26918:	00067477 	.word	0x00067477
   2691c:	00067486 	.word	0x00067486
   26920:	4b545224 	.word	0x4b545224
   26924:	000736c4 	.word	0x000736c4
   26928:	00067493 	.word	0x00067493
   2692c:	0006729c 	.word	0x0006729c
   26930:	000674a7 	.word	0x000674a7
   26934:	000674b4 	.word	0x000674b4
   26938:	000674e0 	.word	0x000674e0
   2693c:	000674f7 	.word	0x000674f7
   26940:	00067517 	.word	0x00067517
   26944:	00067533 	.word	0x00067533
   26948:	00067556 	.word	0x00067556
   2694c:	00063e9e 	.word	0x00063e9e
   26950:	00067579 	.word	0x00067579
   26954:	000675a1 	.word	0x000675a1
   26958:	00f60100 	.word	0x00f60100

0002695c <rtk_plat_read_fw_image_from_NAND>:
   2695c:	e3a00000 	mov	r0, #0
   26960:	e12fff1e 	bx	lr

00026964 <rtk_plat_read_fw_image_from_SPI>:
   26964:	e3a00000 	mov	r0, #0
   26968:	e12fff1e 	bx	lr

0002696c <rtk_plat_prepare_fw_image_from_USB>:
   2696c:	e3a00000 	mov	r0, #0
   26970:	e12fff1e 	bx	lr

00026974 <rtk_plat_prepare_fw_image_from_eMMC>:
   26974:	e59f33d8 	ldr	r3, [pc, #984]	; 26d54 <rtk_plat_prepare_fw_image_from_eMMC+0x3e0>
   26978:	e92d46f0 	push	{r4, r5, r6, r7, r9, sl, lr}
   2697c:	e5933000 	ldr	r3, [r3]
   26980:	e24dd034 	sub	sp, sp, #52	; 0x34
   26984:	e59f93cc 	ldr	r9, [pc, #972]	; 26d58 <rtk_plat_prepare_fw_image_from_eMMC+0x3e4>
   26988:	e3530009 	cmp	r3, #9
   2698c:	e59f43c8 	ldr	r4, [pc, #968]	; 26d5c <rtk_plat_prepare_fw_image_from_eMMC+0x3e8>
   26990:	1a000005 	bne	269ac <rtk_plat_prepare_fw_image_from_eMMC+0x38>
   26994:	e59f03c4 	ldr	r0, [pc, #964]	; 26d60 <rtk_plat_prepare_fw_image_from_eMMC+0x3ec>
   26998:	eb001cc8 	bl	2dcc0 <printf>
   2699c:	e5943000 	ldr	r3, [r4]
   269a0:	e2833501 	add	r3, r3, #4194304	; 0x400000
   269a4:	e2833902 	add	r3, r3, #32768	; 0x8000
   269a8:	ea000003 	b	269bc <rtk_plat_prepare_fw_image_from_eMMC+0x48>
   269ac:	e59f03b0 	ldr	r0, [pc, #944]	; 26d64 <rtk_plat_prepare_fw_image_from_eMMC+0x3f0>
   269b0:	eb001cc2 	bl	2dcc0 <printf>
   269b4:	e5943000 	ldr	r3, [r4]
   269b8:	e2833501 	add	r3, r3, #4194304	; 0x400000
   269bc:	e5893014 	str	r3, [r9, #20]
   269c0:	e3a02519 	mov	r2, #104857600	; 0x6400000
   269c4:	e3a01020 	mov	r1, #32
   269c8:	e5994014 	ldr	r4, [r9, #20]
   269cc:	e1a044a4 	lsr	r4, r4, #9
   269d0:	e1a00004 	mov	r0, r4
   269d4:	eb006ff2 	bl	429a4 <rtk_eMMC_read>
   269d8:	e3500000 	cmp	r0, #0
   269dc:	1a000006 	bne	269fc <rtk_plat_prepare_fw_image_from_eMMC+0x88>
   269e0:	e3a03519 	mov	r3, #104857600	; 0x6400000
   269e4:	e1a02004 	mov	r2, r4
   269e8:	e58d3000 	str	r3, [sp]
   269ec:	e3a03020 	mov	r3, #32
   269f0:	e59f1370 	ldr	r1, [pc, #880]	; 26d68 <rtk_plat_prepare_fw_image_from_eMMC+0x3f4>
   269f4:	e59f0370 	ldr	r0, [pc, #880]	; 26d6c <rtk_plat_prepare_fw_image_from_eMMC+0x3f8>
   269f8:	ea00001b 	b	26a6c <rtk_plat_prepare_fw_image_from_eMMC+0xf8>
   269fc:	e3a02020 	mov	r2, #32
   26a00:	e3a01519 	mov	r1, #104857600	; 0x6400000
   26a04:	e28d0010 	add	r0, sp, #16
   26a08:	eb00cb13 	bl	5965c <memcpy>
   26a0c:	e3a02008 	mov	r2, #8
   26a10:	e59f1358 	ldr	r1, [pc, #856]	; 26d70 <rtk_plat_prepare_fw_image_from_eMMC+0x3fc>
   26a14:	e28d0010 	add	r0, sp, #16
   26a18:	eb00ca22 	bl	592a8 <strncmp>
   26a1c:	e3500000 	cmp	r0, #0
   26a20:	0a000005 	beq	26a3c <rtk_plat_prepare_fw_image_from_eMMC+0xc8>
   26a24:	e59f133c 	ldr	r1, [pc, #828]	; 26d68 <rtk_plat_prepare_fw_image_from_eMMC+0x3f4>
   26a28:	e28d2010 	add	r2, sp, #16
   26a2c:	e59f0340 	ldr	r0, [pc, #832]	; 26d74 <rtk_plat_prepare_fw_image_from_eMMC+0x400>
   26a30:	eb001ca2 	bl	2dcc0 <printf>
   26a34:	e3a00001 	mov	r0, #1
   26a38:	ea0000c3 	b	26d4c <rtk_plat_prepare_fw_image_from_eMMC+0x3d8>
   26a3c:	e3a02519 	mov	r2, #104857600	; 0x6400000
   26a40:	e59d1024 	ldr	r1, [sp, #36]	; 0x24
   26a44:	e1a00004 	mov	r0, r4
   26a48:	eb006fd5 	bl	429a4 <rtk_eMMC_read>
   26a4c:	e3500000 	cmp	r0, #0
   26a50:	1a000007 	bne	26a74 <rtk_plat_prepare_fw_image_from_eMMC+0x100>
   26a54:	e3a03519 	mov	r3, #104857600	; 0x6400000
   26a58:	e59f1308 	ldr	r1, [pc, #776]	; 26d68 <rtk_plat_prepare_fw_image_from_eMMC+0x3f4>
   26a5c:	e58d3000 	str	r3, [sp]
   26a60:	e1a02004 	mov	r2, r4
   26a64:	e59d3024 	ldr	r3, [sp, #36]	; 0x24
   26a68:	e59f0308 	ldr	r0, [pc, #776]	; 26d78 <rtk_plat_prepare_fw_image_from_eMMC+0x404>
   26a6c:	eb001c93 	bl	2dcc0 <printf>
   26a70:	eaffffef 	b	26a34 <rtk_plat_prepare_fw_image_from_eMMC+0xc0>
   26a74:	e59d7028 	ldr	r7, [sp, #40]	; 0x28
   26a78:	e59d102c 	ldr	r1, [sp, #44]	; 0x2c
   26a7c:	e59f02f8 	ldr	r0, [pc, #760]	; 26d7c <rtk_plat_prepare_fw_image_from_eMMC+0x408>
   26a80:	e0871001 	add	r1, r7, r1
   26a84:	e2811014 	add	r1, r1, #20
   26a88:	ebfffc7c 	bl	25c80 <get_checksum>
   26a8c:	e59d2018 	ldr	r2, [sp, #24]
   26a90:	e1a03000 	mov	r3, r0
   26a94:	e1520000 	cmp	r2, r0
   26a98:	0a000003 	beq	26aac <rtk_plat_prepare_fw_image_from_eMMC+0x138>
   26a9c:	e59f12c4 	ldr	r1, [pc, #708]	; 26d68 <rtk_plat_prepare_fw_image_from_eMMC+0x3f4>
   26aa0:	e59f02d8 	ldr	r0, [pc, #728]	; 26d80 <rtk_plat_prepare_fw_image_from_eMMC+0x40c>
   26aa4:	eb001c85 	bl	2dcc0 <printf>
   26aa8:	eaffffe1 	b	26a34 <rtk_plat_prepare_fw_image_from_eMMC+0xc0>
   26aac:	e3570000 	cmp	r7, #0
   26ab0:	13a03030 	movne	r3, #48	; 0x30
   26ab4:	1737f317 	udivne	r7, r7, r3
   26ab8:	1a000002 	bne	26ac8 <rtk_plat_prepare_fw_image_from_eMMC+0x154>
   26abc:	e59f12a4 	ldr	r1, [pc, #676]	; 26d68 <rtk_plat_prepare_fw_image_from_eMMC+0x3f4>
   26ac0:	e59f02bc 	ldr	r0, [pc, #700]	; 26d84 <rtk_plat_prepare_fw_image_from_eMMC+0x410>
   26ac4:	eb001c7d 	bl	2dcc0 <printf>
   26ac8:	e59d202c 	ldr	r2, [sp, #44]	; 0x2c
   26acc:	e5991014 	ldr	r1, [r9, #20]
   26ad0:	e59f02b0 	ldr	r0, [pc, #688]	; 26d88 <rtk_plat_prepare_fw_image_from_eMMC+0x414>
   26ad4:	e1a022a2 	lsr	r2, r2, #5
   26ad8:	eb001c78 	bl	2dcc0 <printf>
   26adc:	e5dd201c 	ldrb	r2, [sp, #28]
   26ae0:	e59d6028 	ldr	r6, [sp, #40]	; 0x28
   26ae4:	e3520011 	cmp	r2, #17
   26ae8:	e2866519 	add	r6, r6, #104857600	; 0x6400000
   26aec:	e2866020 	add	r6, r6, #32
   26af0:	0a00001c 	beq	26b68 <rtk_plat_prepare_fw_image_from_eMMC+0x1f4>
   26af4:	e3520021 	cmp	r2, #33	; 0x21
   26af8:	0a000050 	beq	26c40 <rtk_plat_prepare_fw_image_from_eMMC+0x2cc>
   26afc:	e3520001 	cmp	r2, #1
   26b00:	1a000084 	bne	26d18 <rtk_plat_prepare_fw_image_from_eMMC+0x3a4>
   26b04:	e59d502c 	ldr	r5, [sp, #44]	; 0x2c
   26b08:	e1a02006 	mov	r2, r6
   26b0c:	e59f3244 	ldr	r3, [pc, #580]	; 26d58 <rtk_plat_prepare_fw_image_from_eMMC+0x3e4>
   26b10:	e1a052a5 	lsr	r5, r5, #5
   26b14:	e5930014 	ldr	r0, [r3, #20]
   26b18:	e0861285 	add	r1, r6, r5, lsl #5
   26b1c:	e1520001 	cmp	r2, r1
   26b20:	0a00007f 	beq	26d24 <rtk_plat_prepare_fw_image_from_eMMC+0x3b0>
   26b24:	e5d2c00b 	ldrb	ip, [r2, #11]
   26b28:	e2822020 	add	r2, r2, #32
   26b2c:	e5523016 	ldrb	r3, [r2, #-22]
   26b30:	e183340c 	orr	r3, r3, ip, lsl #8
   26b34:	e552c014 	ldrb	ip, [r2, #-20]
   26b38:	e183380c 	orr	r3, r3, ip, lsl #16
   26b3c:	e552c013 	ldrb	ip, [r2, #-19]
   26b40:	e1833c0c 	orr	r3, r3, ip, lsl #24
   26b44:	e0603003 	rsb	r3, r0, r3
   26b48:	e5423016 	strb	r3, [r2, #-22]
   26b4c:	e7e7c453 	ubfx	ip, r3, #8, #8
   26b50:	e542c015 	strb	ip, [r2, #-21]
   26b54:	e7e7c853 	ubfx	ip, r3, #16, #8
   26b58:	e1a03c23 	lsr	r3, r3, #24
   26b5c:	e542c014 	strb	ip, [r2, #-20]
   26b60:	e5423013 	strb	r3, [r2, #-19]
   26b64:	eaffffec 	b	26b1c <rtk_plat_prepare_fw_image_from_eMMC+0x1a8>
   26b68:	e59d502c 	ldr	r5, [sp, #44]	; 0x2c
   26b6c:	e3a03060 	mov	r3, #96	; 0x60
   26b70:	e1a04006 	mov	r4, r6
   26b74:	e3a0a000 	mov	sl, #0
   26b78:	e735f315 	udiv	r5, r5, r3
   26b7c:	e15a0005 	cmp	sl, r5
   26b80:	0a000067 	beq	26d24 <rtk_plat_prepare_fw_image_from_eMMC+0x3b0>
